
code_flash.elf:     file format elf32-littlearm


Disassembly of section .text:

00000000 <_boot>:

/**********************************************************************/
/***************    Vector Table & related constants     **************/
/**********************************************************************/

_vectors:       ldr     PC, Reset_Addr         
       0:	e59ff018 	ldr	pc, [pc, #24]	; 20 <Reset_Addr>
                ldr     PC, Undef_Addr
       4:	e59ff018 	ldr	pc, [pc, #24]	; 24 <Undef_Addr>
                ldr     PC, SWI_Addr
       8:	e59ff018 	ldr	pc, [pc, #24]	; 28 <SWI_Addr>
                ldr     PC, PAbt_Addr
       c:	e59ff018 	ldr	pc, [pc, #24]	; 2c <PAbt_Addr>
                ldr     PC, DAbt_Addr
      10:	e59ff018 	ldr	pc, [pc, #24]	; 30 <DAbt_Addr>
                nop							/* Reserved Vector (changed to Philips ISP checksum)    */
      14:	e1a00000 	nop			; (mov r0, r0)
                ldr     PC, [PC,#-0xFF0]	/* LPC21xx vectored interrupt (see VIC in users manual) */
      18:	e51ffff0 	ldr	pc, [pc, #-4080]	; fffff030 <_stack_end+0xbffef030>
                ldr     PC, FIQ_Addr
      1c:	e59ff010 	ldr	pc, [pc, #16]	; 34 <FIQ_Addr>

00000020 <Reset_Addr>:
      20:	00000230 	.word	0x00000230

00000024 <Undef_Addr>:
      24:	0000009c 	.word	0x0000009c

00000028 <SWI_Addr>:
      28:	000000a8 	.word	0x000000a8

0000002c <PAbt_Addr>:
      2c:	000000b4 	.word	0x000000b4

00000030 <DAbt_Addr>:
      30:	000000c0 	.word	0x000000c0

00000034 <FIQ_Addr>:
      34:	000000cc 	.word	0x000000cc
      38:	e1a00000 	.word	0xe1a00000
      3c:	e1a00000 	.word	0xe1a00000

00000040 <_U0prthex>:
        .align 6	// skip the rest of the vector block (64 bytes total)
/****************************************/
/*			Exception handling			*/
/****************************************/
_U0prthex:			@ 32 bits
		mov		r2,#8
      40:	e3a02008 	mov	r2, #8
		ldr     r1,=0xE000C000  @ UART0 THR
      44:	e59f1590 	ldr	r1, [pc, #1424]	; 5dc <_U0getch+0x18>
1:		ldrb    r3,[r1,#0x14]   @ UART0 LSR, wait until THRE is one
      48:	e5d13014 	ldrb	r3, [r1, #20]
		tst		r3,#0x20
      4c:	e3130020 	tst	r3, #32
		beq		1b
      50:	0afffffc 	beq	48 <_U0prthex+0x8>
		mov		r0,r0, ror #28	@ ...rol #4
      54:	e1a00e60 	ror	r0, r0, #28
		and		r3,r0,#0x0f
      58:	e200300f 	and	r3, r0, #15
		cmp		r3,#9		@ 0..9 or A..F ?
      5c:	e3530009 	cmp	r3, #9
		addgt	r3,r3,#7	@ offset from '9'+1 to 'A' in the ASCII code
      60:	c2833007 	addgt	r3, r3, #7
		add		r3,r3,#'0'	@ convert to ASCII
      64:	e2833030 	add	r3, r3, #48	; 0x30
		strb	r3,[r1]		@ send through UART0 THR
      68:	e5c13000 	strb	r3, [r1]
		subs	r2,r2,#1	@ repeat until no more digits pending
      6c:	e2522001 	subs	r2, r2, #1
		bne		1b
      70:	1afffff4 	bne	48 <_U0prthex+0x8>
		mov		pc,lr
      74:	e1a0f00e 	mov	pc, lr

00000078 <_U0puts>:
_U0puts:
		ldr     r1,=0xE000C000  @ UART0 THR
      78:	e59f155c 	ldr	r1, [pc, #1372]	; 5dc <_U0getch+0x18>
1:		ldrb	r2,[r1,#0x14]	@ UART0 LSR, wait until THRE is one
      7c:	e5d12014 	ldrb	r2, [r1, #20]
		tst		r2,#0x20
      80:	e3120020 	tst	r2, #32
		beq		1b
      84:	0afffffc 	beq	7c <_U0puts+0x4>
		ldrb	r2,[r0],#1	@ get char
      88:	e4d02001 	ldrb	r2, [r0], #1
		tst		r2,#0xff
      8c:	e31200ff 	tst	r2, #255	; 0xff
		moveq	pc,lr		@ return if 0
      90:	01a0f00e 	moveq	pc, lr
		strb	r2,[r1]		@ send through UART0 THR
      94:	e5c12000 	strb	r2, [r1]
		b		1b
      98:	eafffff7 	b	7c <_U0puts+0x4>

0000009c <UNDEF_Routine>:

UNDEF_Routine:
		stmfd	sp!,{r0,lr}
      9c:	e92d4001 	push	{r0, lr}
		adr		lr,UNDtxt
      a0:	e28fe0d7 	add	lr, pc, #215	; 0xd7
		b		exception
      a4:	ea00000a 	b	d4 <exception>

000000a8 <SWI_Routine>:
SWI_Routine:
		stmfd	sp!,{r0,lr}
      a8:	e92d4001 	push	{r0, lr}
		adr		lr,SWItxt
      ac:	e28fe0e0 	add	lr, pc, #224	; 0xe0
		b		exception
      b0:	ea000007 	b	d4 <exception>

000000b4 <PABORT_Routine>:
PABORT_Routine:
		stmfd	sp!,{r0,lr}
      b4:	e92d4001 	push	{r0, lr}
		adr		lr,PABtxt
      b8:	e28fe0e7 	add	lr, pc, #231	; 0xe7
		b		exception
      bc:	ea000004 	b	d4 <exception>

000000c0 <DABORT_Routine>:
DABORT_Routine:
		stmfd	sp!,{r0,lr}
      c0:	e92d4001 	push	{r0, lr}
		adr		lr,DABtxt
      c4:	e28fe0f9 	add	lr, pc, #249	; 0xf9
		b		exception
      c8:	ea000001 	b	d4 <exception>

000000cc <FIQ_Routine>:
FIQ_Routine:
		stmfd	sp!,{r0,lr}
      cc:	e92d4001 	push	{r0, lr}
		adr		lr,FIQtxt
      d0:	e28fe094 	add	lr, pc, #148	; 0x94

000000d4 <exception>:

exception:
		mov		r0,sp
      d4:	e1a0000d 	mov	r0, sp
		sub		r0,r0,#56
      d8:	e2400038 	sub	r0, r0, #56	; 0x38
		stmia	r0,{r1-lr}^			@ save USER/SYS mode registers
      dc:	e8c07ffe 	stmia	r0, {r1, r2, r3, r4, r5, r6, r7, r8, r9, sl, fp, ip, sp, lr}^
		add		r1,r0,#56			@ re-order registers in RAM
      e0:	e2801038 	add	r1, r0, #56	; 0x38
		sub		r2,r1,#4			@   R0 is 15th and is moved to first place
      e4:	e2412004 	sub	r2, r1, #4
		ldr		r8,[r1]				@   at the end r0 points to [r0-r15], ordered
      e8:	e5918000 	ldr	r8, [r1]
1:		ldr		r3,[r2],#-4
      ec:	e4123004 	ldr	r3, [r2], #-4
		str		r3,[r1],#-4
      f0:	e4013004 	str	r3, [r1], #-4
		cmp		r1,r0
      f4:	e1510000 	cmp	r1, r0
		bne		1b
      f8:	1afffffb 	bne	ec <exception+0x18>
		str		r8,[r0]
      fc:	e5808000 	str	r8, [r0]
		mov		r10,r0
     100:	e1a0a000 	mov	sl, r0

		mov		r0,lr				@ Exception name
     104:	e1a0000e 	mov	r0, lr
		bl		_U0puts
     108:	ebffffda 	bl	78 <_U0puts>
		adr		r0,regs				@ regs msg
     10c:	e28f00cb 	add	r0, pc, #203	; 0xcb
		bl		_U0puts
     110:	ebffffd8 	bl	78 <_U0puts>
		mov		r4,#16
     114:	e3a04010 	mov	r4, #16
		adr		r5,txtr0
     118:	e28f50d9 	add	r5, pc, #217	; 0xd9
2:		tst		r4,#3
     11c:	e3140003 	tst	r4, #3
		bne		3f
     120:	1a000004 	bne	138 <exception+0x64>
		adr		r0,crlf
     124:	e28f00ca 	add	r0, pc, #202	; 0xca
		bl		_U0puts
     128:	ebffffd2 	bl	78 <_U0puts>
		mov		r0,r5				@ register name
     12c:	e1a00005 	mov	r0, r5
		add		r5,r5,#10			@ add string lenght
     130:	e285500a 	add	r5, r5, #10
		bl		_U0puts
     134:	ebffffcf 	bl	78 <_U0puts>
3:		ldr		r0,[r10],#4
     138:	e49a0004 	ldr	r0, [sl], #4
		bl		_U0prthex			@ register values
     13c:	ebffffbf 	bl	40 <_U0prthex>
		mov		r0,#' '
     140:	e3a00020 	mov	r0, #32
		bl		_U0putch
     144:	eb000118 	bl	5ac <_U0putch>
		subs	r4,r4,#1
     148:	e2544001 	subs	r4, r4, #1
		bne		2b
     14c:	1afffff2 	bne	11c <exception+0x48>
		mov		r0,r5
     150:	e1a00005 	mov	r0, r5
		bl		_U0puts
     154:	ebffffc7 	bl	78 <_U0puts>
		mrs		r0,spsr
     158:	e14f0000 	mrs	r0, SPSR
		bl		_U0prthex
     15c:	ebffffb7 	bl	40 <_U0prthex>
		adr		r0,crlf
     160:	e28f008e 	add	r0, pc, #142	; 0x8e
		bl		_U0puts
     164:	ebffffc3 	bl	78 <_U0puts>
		b		_Halt
     168:	ea000076 	b	348 <_Halt>

0000016c <FIQtxt>:
     16c:	2d2d2d23 	.word	0x2d2d2d23
     170:	51494620 	.word	0x51494620
     174:	746e6920 	.word	0x746e6920
     178:	75727265 	.word	0x75727265
     17c:	7470      	.short	0x7470
	...

0000017f <UNDtxt>:
     17f:	23          	.byte	0x23
     180:	202d2d2d 	.word	0x202d2d2d
     184:	45444e55 	.word	0x45444e55
     188:	78652046 	.word	0x78652046
     18c:	74706563 	.word	0x74706563
     190:	006e6f69 	.word	0x006e6f69

00000194 <SWItxt>:
     194:	2d2d2d23 	.word	0x2d2d2d23
     198:	49575320 	.word	0x49575320
     19c:	63786520 	.word	0x63786520
     1a0:	69747065 	.word	0x69747065
     1a4:	6e6f      	.short	0x6e6f
	...

000001a7 <PABtxt>:
     1a7:	23          	.byte	0x23
     1a8:	202d2d2d 	.word	0x202d2d2d
     1ac:	66657250 	.word	0x66657250
     1b0:	68637465 	.word	0x68637465
     1b4:	6f624120 	.word	0x6f624120
     1b8:	65207472 	.word	0x65207472
     1bc:	70656378 	.word	0x70656378
     1c0:	6e6f6974 	.word	0x6e6f6974
	...

000001c5 <DABtxt>:
     1c5:	23          	.byte	0x23
     1c6:	2d2d      	.short	0x2d2d
     1c8:	6144202d 	.word	0x6144202d
     1cc:	41206174 	.word	0x41206174
     1d0:	74726f62 	.word	0x74726f62
     1d4:	63786520 	.word	0x63786520
     1d8:	69747065 	.word	0x69747065
     1dc:	6e6f      	.short	0x6e6f
	...

000001df <regs>:
     1df:	0d          	.byte	0x0d
     1e0:	2020200a 	.word	0x2020200a
     1e4:	73552020 	.word	0x73552020
     1e8:	6d207265 	.word	0x6d207265
     1ec:	2065646f 	.word	0x2065646f
     1f0:	73676572 	.word	0x73676572
     1f4:	003a      	.short	0x003a

000001f6 <crlf>:
     1f6:	0a0d      	.short	0x0a0d
	...

000001f9 <txtr0>:
     1f9:	52          	.byte	0x52
     1fa:	2030      	.short	0x2030
     1fc:	3352202d 	.word	0x3352202d
     200:	203a      	.short	0x203a
	...

00000203 <txtr4>:
     203:	52          	.byte	0x52
     204:	202d2034 	.word	0x202d2034
     208:	203a3752 	.word	0x203a3752
	...

0000020d <txtr8>:
     20d:	52          	.byte	0x52
     20e:	2038      	.short	0x2038
     210:	3131522d 	.word	0x3131522d
     214:	203a      	.short	0x203a
	...

00000217 <txtr12>:
     217:	52          	.byte	0x52
     218:	522d3231 	.word	0x522d3231
     21c:	203a3531 	.word	0x203a3531
	...

00000221 <status>:
     221:	0d          	.byte	0x0d
     222:	530a      	.short	0x530a
     224:	20525350 	.word	0x20525350
     228:	203a2020 	.word	0x203a2020
     22c:	00          	.byte	0x00
     22d:	00          	.byte	0x00
	...

00000230 <_mainCRTStartup>:
_mainCRTStartup:
Reset_Code:  

	/* Setup a stack for each mode */

    	ldr   r0, =_stack_end
     230:	e59f03a8 	ldr	r0, [pc, #936]	; 5e0 <_U0getch+0x1c>
    	msr   CPSR_c, #MODE_UND|I_BIT|F_BIT 	/* Undefined Instruction Mode  */
     234:	e321f0db 	msr	CPSR_c, #219	; 0xdb
    	mov   sp, r0
     238:	e1a0d000 	mov	sp, r0
    	sub   r0, r0, #UND_STACK_SIZE
     23c:	e2400040 	sub	r0, r0, #64	; 0x40
    	msr   CPSR_c, #MODE_ABT|I_BIT|F_BIT 	/* Abort Mode */
     240:	e321f0d7 	msr	CPSR_c, #215	; 0xd7
    	mov   sp, r0
     244:	e1a0d000 	mov	sp, r0
    	sub   r0, r0, #ABT_STACK_SIZE
     248:	e2400040 	sub	r0, r0, #64	; 0x40
    	msr   CPSR_c, #MODE_FIQ|I_BIT|F_BIT 	/* FIQ Mode */
     24c:	e321f0d1 	msr	CPSR_c, #209	; 0xd1
    	mov   sp, r0	
     250:	e1a0d000 	mov	sp, r0
        sub   r0, r0, #FIQ_STACK_SIZE
     254:	e2400020 	sub	r0, r0, #32
    	msr   CPSR_c, #MODE_IRQ|I_BIT|F_BIT 	/* IRQ Mode */
     258:	e321f0d2 	msr	CPSR_c, #210	; 0xd2
    	mov   sp, r0
     25c:	e1a0d000 	mov	sp, r0
    	sub   r0, r0, #IRQ_STACK_SIZE
     260:	e2400040 	sub	r0, r0, #64	; 0x40
    	msr   CPSR_c, #MODE_SVC|I_BIT|F_BIT 	/* Supervisor Mode */
     264:	e321f0d3 	msr	CPSR_c, #211	; 0xd3
    	mov   sp, r0
     268:	e1a0d000 	mov	sp, r0
    	sub   r0, r0, #SVC_STACK_SIZE
     26c:	e2400040 	sub	r0, r0, #64	; 0x40
    	msr   CPSR_c, #MODE_SYS|I_BIT|F_BIT 	/* System and User Modes */
     270:	e321f0df 	msr	CPSR_c, #223	; 0xdf
    	mov   sp, r0
     274:	e1a0d000 	mov	sp, r0
		/* PLL x 4, PCLK = CCLK					  				  */
		/* CCLK=58.9824MHz, PCLK=58.9824MHz		  				  */
		/* UART0 at 115200 bps, 8-bit, 1-stop, no parity, FIFO on */
		/**********************************************************/

		ldr		r1,=0xE01FC000
     278:	e59f1364 	ldr	r1, [pc, #868]	; 5e4 <_U0getch+0x20>
		mov		r2,#0xaa
     27c:	e3a020aa 	mov	r2, #170	; 0xaa
		mov		r3,#0x55
     280:	e3a03055 	mov	r3, #85	; 0x55
		mov		r0,#0x23		@ PLL x 4
     284:	e3a00023 	mov	r0, #35	; 0x23
#		mov		r0,#0x24		@ PLL x 5
		strb	r0,[r1,#0x84]	@ PLLCFG
     288:	e5c10084 	strb	r0, [r1, #132]	; 0x84
		strb	r2,[r1,#0x8c]
     28c:	e5c1208c 	strb	r2, [r1, #140]	; 0x8c
		strb	r3,[r1,#0x8c]
     290:	e5c1308c 	strb	r3, [r1, #140]	; 0x8c
		mov		r0,#1			@ PLL on
     294:	e3a00001 	mov	r0, #1
		strb	r0,[r1,#0x80]	@ PLLCON
     298:	e5c10080 	strb	r0, [r1, #128]	; 0x80
		strb	r2,[r1,#0x8c]
     29c:	e5c1208c 	strb	r2, [r1, #140]	; 0x8c
		strb	r3,[r1,#0x8c]
     2a0:	e5c1308c 	strb	r3, [r1, #140]	; 0x8c
1:		ldrh	r0,[r1,#0x88]	@ PLLSTAT
     2a4:	e1d108b8 	ldrh	r0, [r1, #136]	; 0x88
		tst		r0,#0x400		@ PLOCK on ?
     2a8:	e3100b01 	tst	r0, #1024	; 0x400
		beq		1b
     2ac:	0afffffc 	beq	2a4 <_mainCRTStartup+0x74>
		mov		r0,#3			@ PLL connected
     2b0:	e3a00003 	mov	r0, #3
		strb	r0,[r1,#0x80]	@ PLLCON
     2b4:	e5c10080 	strb	r0, [r1, #128]	; 0x80
		strb	r2,[r1,#0x8c]
     2b8:	e5c1208c 	strb	r2, [r1, #140]	; 0x8c
		strb	r3,[r1,#0x8c]
     2bc:	e5c1308c 	strb	r3, [r1, #140]	; 0x8c
		mov		r0,#1
     2c0:	e3a00001 	mov	r0, #1
		str		r0,[r1,#0x100]	@ APBDIV: PCLK=CCLK/1
     2c4:	e5810100 	str	r0, [r1, #256]	; 0x100

        mov     r0,#2			@ MAM init
     2c8:	e3a00002 	mov	r0, #2
        str     r0,[r1]     	@ MAMCR=2 (Fully enabled)
     2cc:	e5810000 	str	r0, [r1]
        mov     r0,#3
     2d0:	e3a00003 	mov	r0, #3
        str     r0,[r1,#4]  	@ MAMTIM=3 (3 cycles/flash read)
     2d4:	e5810004 	str	r0, [r1, #4]

		sub		r1,r1,#(0xE01FC000-0xE002C000)	@ PINSEL0
     2d8:	e241181d 	sub	r1, r1, #1900544	; 0x1d0000
		mov		r0,#5			@ P0.0, P0.1 as UART
     2dc:	e3a00005 	mov	r0, #5
		str		r0,[r1]
     2e0:	e5810000 	str	r0, [r1]
		sub		r1,r1,#(0xE002C000-0xE000C000)	@ UART0
     2e4:	e2411802 	sub	r1, r1, #131072	; 0x20000
		mov		r0,#0x83
     2e8:	e3a00083 	mov	r0, #131	; 0x83
		strb	r0,[r1,#12]		@ LCR=0x83
     2ec:	e5c1000c 	strb	r0, [r1, #12]
		mov		r0,#32			@ divider for 115200 baud (PCLK=58.9824MHz)
     2f0:	e3a00020 	mov	r0, #32
#		mov		r0,#40			@ divider for 115200 baud (PCLK=73.7280MHz)
		strb	r0,[r1]			@ DLL
     2f4:	e5c10000 	strb	r0, [r1]
		mov		r0,#0
     2f8:	e3a00000 	mov	r0, #0
		strb	r0,[r1,#4]		@ DLH
     2fc:	e5c10004 	strb	r0, [r1, #4]
		mov		r0,#3
     300:	e3a00003 	mov	r0, #3
		strb	r0,[r1,#12]		@ LCR=3 (8 bit, 1 stop, no parity)
     304:	e5c1000c 	strb	r0, [r1, #12]
		mov		r0,#7
     308:	e3a00007 	mov	r0, #7
		strb	r0,[r1,#8]		@ FCR=7 (FIFOs on)
     30c:	e5c10008 	strb	r0, [r1, #8]

	/* copy .data section (Copy from ROM to RAM) */
        ldr     R1, =_etext
     310:	e59f12d0 	ldr	r1, [pc, #720]	; 5e8 <_U0getch+0x24>
        ldr     R2, =_data
     314:	e59f22d0 	ldr	r2, [pc, #720]	; 5ec <_U0getch+0x28>
        ldr     R3, =_edata
     318:	e59f32d0 	ldr	r3, [pc, #720]	; 5f0 <_U0getch+0x2c>
1:      cmp     R2, R3
     31c:	e1520003 	cmp	r2, r3
        ldrlo   R0, [R1], #4
     320:	34910004 	ldrcc	r0, [r1], #4
        strlo   R0, [R2], #4
     324:	34820004 	strcc	r0, [r2], #4
        blo     1b
     328:	3afffffb 	bcc	31c <_mainCRTStartup+0xec>

	/* Clear .bss section (Zero init)  */
        mov     R0, #0
     32c:	e3a00000 	mov	r0, #0
        ldr     R1, =__bss_start__
     330:	e59f12bc 	ldr	r1, [pc, #700]	; 5f4 <_U0getch+0x30>
        ldr     R2, =__bss_end__
     334:	e59f22bc 	ldr	r2, [pc, #700]	; 5f8 <_U0getch+0x34>
2:		cmp     R1, R2
     338:	e1510002 	cmp	r1, r2
        strlo   R0, [R1], #4
     33c:	34810004 	strcc	r0, [r1], #4
        blo     2b
     340:	3afffffc 	bcc	338 <_mainCRTStartup+0x108>

	/* Enter the C code */

		bl		main
     344:	eb00200a 	bl	8374 <main>

00000348 <_Halt>:
        .size   _start, . - _start
        .endfunc
		

		.global _Halt
_Halt:	mov		r0,#(16<<20)	@ delay to allow for UART flush
     348:	e3a00401 	mov	r0, #16777216	; 0x1000000
		bl		_delay_loop
     34c:	eb000003 	bl	360 <_delay_loop>
1:		ldr		r1,=0xE01FC0C0 	@ PCON=2 (power down)
     350:	e59f12a4 	ldr	r1, [pc, #676]	; 5fc <_U0getch+0x38>
		mov		r0,#2
     354:	e3a00002 	mov	r0, #2
		strb	r0,[R1]
     358:	e5c10000 	strb	r0, [r1]
		b		1b
     35c:	eafffffb 	b	350 <_Halt+0x8>

00000360 <_delay_loop>:
	/* 4 Clock Cycles per loop, R0 = number of loops	*/
	/* Total delay (including call & return) = 4*(N+1)	*/
	/********************************************************/
		.global _delay_loop
_delay_loop:
		subs	r0,r0,#1
     360:	e2500001 	subs	r0, r0, #1
		bne	_delay_loop
     364:	1afffffd 	bne	360 <_delay_loop>
		mov	pc,lr
     368:	e1a0f00e 	mov	pc, lr

0000036c <_prtnum>:
    @       R2 negative means to print R0 as a signed value
 
        .global _prtnum
 
_prtnum:
        stmfd    sp!,{r4,r5,r6,lr}
     36c:	e92d4070 	push	{r4, r5, r6, lr}
        mov        r6,sp        @ SP copy
     370:	e1a0600d 	mov	r6, sp
        mov     r4,#0        @ digit counter
     374:	e3a04000 	mov	r4, #0
        movs    r2,r2        @ check if negative mode
     378:	e1b02002 	movs	r2, r2
        bpl        1f
     37c:	5a000002 	bpl	38c <_prtnum+0x20>
        movs    r0,r0        @ check value when in negative mode
     380:	e1b00000 	movs	r0, r0
        rsbmi    r0,r0,#0    @ change sign if negative
     384:	42600000 	rsbmi	r0, r0, #0
        bicpl    r2,r2,#0x80000000    @ do not print dashes on positive values
     388:	53c22102 	bicpl	r2, r2, #-2147483648	; 0x80000000
1:        mov     lr,#32        @ R0/=10, R3=remainder
     38c:	e3a0e020 	mov	lr, #32
        mov        r3,#0
     390:	e3a03000 	mov	r3, #0
2:        adds    r0,r0,r0
     394:	e0900000 	adds	r0, r0, r0
        adc        r3,r3,r3
     398:	e0a33003 	adc	r3, r3, r3
        cmp        r3,#10
     39c:	e353000a 	cmp	r3, #10
        subge    r3,r3,#10
     3a0:	a243300a 	subge	r3, r3, #10
        addge    r0,r0,#1
     3a4:	a2800001 	addge	r0, r0, #1
        subs    lr,lr,#1
     3a8:	e25ee001 	subs	lr, lr, #1
        bne        2b
     3ac:	1afffff8 	bne	394 <_prtnum+0x28>
        add        r3,r3,#'0'    @ convert to ASCII
     3b0:	e2833030 	add	r3, r3, #48	; 0x30
3:        strb    r3,[r6,#-1]!    @ store digit in the STACK
     3b4:	e5663001 	strb	r3, [r6, #-1]!
        add        r4,r4,#1    @ increment digit counter
     3b8:	e2844001 	add	r4, r4, #1
        cmp        r0,#0        @ repeat until number is zero
     3bc:	e3500000 	cmp	r0, #0
        bne        1b
     3c0:	1afffff1 	bne	38c <_prtnum+0x20>
        mov        r3,#'-'
     3c4:	e3a0302d 	mov	r3, #45	; 0x2d
        movs    r2,r2        @ check if negative mode
     3c8:	e1b02002 	movs	r2, r2
        bicmi    r2,r2,#0x80000000    @ clear the negative mode for next iterations
     3cc:	43c22102 	bicmi	r2, r2, #-2147483648	; 0x80000000
        bmi        3b            @ print the dash if negative mode
     3d0:	4afffff7 	bmi	3b4 <_prtnum+0x48>
        cmp        r1,#0
     3d4:	e3510000 	cmp	r1, #0
        beq        dmpstk
     3d8:	0a000002 	beq	3e8 <dmpstk>
        mov        r3,r2        @ pad character
     3dc:	e1a03002 	mov	r3, r2
        cmp        r1,r4        @ keep printing until the specified number of digits
     3e0:	e1510004 	cmp	r1, r4
        bhi        3b
     3e4:	8afffff2 	bhi	3b4 <_prtnum+0x48>

000003e8 <dmpstk>:
dmpstk:        @ print the digits from the stack
        bic        sp,r6,#3    @ align stack
     3e8:	e3c6d003 	bic	sp, r6, #3
        ldr        r5,=_vputch
     3ec:	e59f520c 	ldr	r5, [pc, #524]	; 600 <_U0getch+0x3c>
        ldr        r5,[r5]        @ pointer to putch
     3f0:	e5955000 	ldr	r5, [r5]
4:        ldrb    r0,[r6],#1    @ get digit from stack
     3f4:	e4d60001 	ldrb	r0, [r6], #1
        adr        lr,5f
     3f8:	e28fe000 	add	lr, pc, #0
        bx        r5            @ call to *(_vputch)
     3fc:	e12fff15 	bx	r5
5:        subs    r4,r4,#1    @ repeat until all digits are printed
     400:	e2544001 	subs	r4, r4, #1
        bne        4b
     404:	1afffffa 	bne	3f4 <dmpstk+0xc>
        mov        sp,r6        @ restore stack
     408:	e1a0d006 	mov	sp, r6
        ldmfd    sp!,{r4,r5,r6,pc}
     40c:	e8bd8070 	pop	{r4, r5, r6, pc}

00000410 <_prthex>:
    @ R1: number of digits (0 means minimun number possible)
    @ R2: pad character for left digits ('0' or ' ', typically)
        .global _prthex
 
_prthex:
        stmfd    sp!,{r4,r5,r6,lr}
     410:	e92d4070 	push	{r4, r5, r6, lr}
        mov        r6,sp        @ SP copy
     414:	e1a0600d 	mov	r6, sp
        mov     r4,#0        @ digit counter
     418:	e3a04000 	mov	r4, #0
1:        and        r3,r0,#0xf
     41c:	e200300f 	and	r3, r0, #15
        mov        r0,r0,lsr #4
     420:	e1a00220 	lsr	r0, r0, #4
        add        r3,r3,#'0'    @ convert to ASCII
     424:	e2833030 	add	r3, r3, #48	; 0x30
        cmp        r3,#'9'        @ adjust for letters (A-F)
     428:	e3530039 	cmp	r3, #57	; 0x39
        addhi    r3,r3,#7
     42c:	82833007 	addhi	r3, r3, #7
2:        strb    r3,[r6,#-1]!    @ store digit in the STACK
     430:	e5663001 	strb	r3, [r6, #-1]!
        add        r4,r4,#1    @ increment digit counter
     434:	e2844001 	add	r4, r4, #1
        cmp        r0,#0        @ repeat until number is zero
     438:	e3500000 	cmp	r0, #0
        bne        1b
     43c:	1afffff6 	bne	41c <_prthex+0xc>
        cmp        r1,#0
     440:	e3510000 	cmp	r1, #0
        beq        dmpstk
     444:	0affffe7 	beq	3e8 <dmpstk>
        mov        r3,r2
     448:	e1a03002 	mov	r3, r2
        cmp        r1,r4
     44c:	e1510004 	cmp	r1, r4
        bhi        2b
     450:	8afffff6 	bhi	430 <_prthex+0x20>
        b        dmpstk 
     454:	eaffffe3 	b	3e8 <dmpstk>

00000458 <_puts>:
	/******************************************/	
	/* print string	(no new line added)		  */
	/******************************************/
	@ R0: pointer to string
		.global _puts
_puts:	stmfd	sp!,{r4,r5,lr}
     458:	e92d4030 	push	{r4, r5, lr}
		mov		r4,r0
     45c:	e1a04000 	mov	r4, r0
		ldr		r5,=_vputch
     460:	e59f5198 	ldr	r5, [pc, #408]	; 600 <_U0getch+0x3c>
		ldr		r5,[r5]		@ pointer to putch
     464:	e5955000 	ldr	r5, [r5]
1:		ldrb	r0,[r4],#1	@ get char
     468:	e4d40001 	ldrb	r0, [r4], #1
		cmp		r0,#0
     46c:	e3500000 	cmp	r0, #0
		ldmeqfd	sp!,{r4,r5,pc}
     470:	08bd8030 	popeq	{r4, r5, pc}
		adr		lr,1b
     474:	e24fe014 	sub	lr, pc, #20
		mov		pc,r5		@ call to (*_vputch)(r0)
     478:	e1a0f005 	mov	pc, r5

0000047c <_printf>:
	@ 	%u %d %x %c %s %% supported.
	@ 	example: %05u means unsigned decimal, 5 digits (if possible), pad with zeroes
	@ R1,R2,R3:	parameters (rest of the parameters in the stack)
		.global _printf
_printf:
		stmfd	sp!,{r1-r3}	@ put first 3 parameters into the stack, next to the rest of them
     47c:	e92d000e 	push	{r1, r2, r3}
		stmfd	sp!,{r4-r6,lr}
     480:	e92d4070 	push	{r4, r5, r6, lr}
		mov		r4,r0		@ pointer to format string
     484:	e1a04000 	mov	r4, r0
		ldr		r5,=_vputch
     488:	e59f5170 	ldr	r5, [pc, #368]	; 600 <_U0getch+0x3c>
		ldr		r5,[r5]		@ pointer to putch
     48c:	e5955000 	ldr	r5, [r5]
		add		r6,sp,#16	@ pointer to parameters
     490:	e28d6010 	add	r6, sp, #16
1:		ldrb	r0,[r4],#1	@ get char
     494:	e4d40001 	ldrb	r0, [r4], #1
		cmp		r0,#0		@ end of string?
     498:	e3500000 	cmp	r0, #0
		beq		9f
     49c:	0a00001d 	beq	518 <_printf+0x9c>
		cmp		r0,#'%'		@ parameter printing?
     4a0:	e3500025 	cmp	r0, #37	; 0x25
		beq		25f
     4a4:	0a000001 	beq	4b0 <_printf+0x34>
3:		adr		lr,1b		@ return to label 1:
     4a8:	e24fe01c 	sub	lr, pc, #28
		mov		pc,r5		@ call to (*_vputch)(r0)
     4ac:	e1a0f005 	mov	pc, r5

25:		mov		r1,#0		@ default digit counter
     4b0:	e3a01000 	mov	r1, #0
		mov		r2,#' '		@ default pad char 
     4b4:	e3a02020 	mov	r2, #32
2:		ldrb	r0,[r4],#1	@ get char
     4b8:	e4d40001 	ldrb	r0, [r4], #1
		cmp		r0,#'%'		@ double %: just print it
     4bc:	e3500025 	cmp	r0, #37	; 0x25
		beq		3b
     4c0:	0afffff8 	beq	4a8 <_printf+0x2c>
		cmp		r0,#'0'		@ 0 means pad with '0'
     4c4:	e3500030 	cmp	r0, #48	; 0x30
		moveq	r2,r0
     4c8:	01a02000 	moveq	r2, r0
		beq		2b
     4cc:	0afffff9 	beq	4b8 <_printf+0x3c>
		cmp		r0,#'9'		@ decimal digit means number of digits (9 max)
     4d0:	e3500039 	cmp	r0, #57	; 0x39
		suble	r1,r0,#'0'
     4d4:	d2401030 	suble	r1, r0, #48	; 0x30
		ble		2b
     4d8:	dafffff6 	ble	4b8 <_printf+0x3c>
		mov		r3,r0
     4dc:	e1a03000 	mov	r3, r0
		ldr		r0,[r6],#4	@ get parameter
     4e0:	e4960004 	ldr	r0, [r6], #4
		cmp		r3,#'c'		@ parameter is a character
     4e4:	e3530063 	cmp	r3, #99	; 0x63
		beq		3b
     4e8:	0affffee 	beq	4a8 <_printf+0x2c>
		adr		lr,1b		@ return address for all routines
     4ec:	e24fe060 	sub	lr, pc, #96	; 0x60
		cmp		r3,#'s'		@ parameter is a string
     4f0:	e3530073 	cmp	r3, #115	; 0x73
		beq		_puts
     4f4:	0affffd7 	beq	458 <_puts>
		cmp		r3,#'u'		@ parameter is a unsigned decimal value
     4f8:	e3530075 	cmp	r3, #117	; 0x75
		beq		_prtnum
     4fc:	0affff9a 	beq	36c <_prtnum>
		cmp		r3,#'d'		@ parameter is a signed decimal value
     500:	e3530064 	cmp	r3, #100	; 0x64
		orreq	r2,r2,#0x80000000
     504:	03822102 	orreq	r2, r2, #-2147483648	; 0x80000000
		beq		_prtnum
     508:	0affff97 	beq	36c <_prtnum>
		cmp		r3,#'x'		@ parameter is a hexadecimal value
     50c:	e3530078 	cmp	r3, #120	; 0x78
		beq		_prthex
     510:	0affffbe 	beq	410 <_prthex>
		b		1b
     514:	eaffffde 	b	494 <_printf+0x18>
9:		ldmfd	sp!,{r4-r6,lr}
     518:	e8bd4070 	pop	{r4, r5, r6, lr}
		ldmfd	sp!,{r1-r3}
     51c:	e8bd000e 	pop	{r1, r2, r3}
		mov		pc,lr
     520:	e1a0f00e 	mov	pc, lr

00000524 <_gets>:
	/******************************************/
	@ R0: pointer to buffer
	@ R1: buffer size
	@ returns: # of bytes in buffer
		.global _gets
_gets:	stmfd	sp!,{r4-r6,lr}
     524:	e92d4070 	push	{r4, r5, r6, lr}
		mov		r4,r0			@ pointer to buffer
     528:	e1a04000 	mov	r4, r0
		add		r5,r4,r1		@ compute top pointer
     52c:	e0845001 	add	r5, r4, r1
		sub		r5,r5,#1		@ space for zero ending
     530:	e2455001 	sub	r5, r5, #1
		mov		r6,r0			@ base pointer
     534:	e1a06000 	mov	r6, r0
1:		ldr		r1,=_vgetch		@ get character
     538:	e59f10c4 	ldr	r1, [pc, #196]	; 604 <_U0getch+0x40>
		adr		lr,2f
     53c:	e28fe000 	add	lr, pc, #0
		ldr		pc,[r1]
     540:	e591f000 	ldr	pc, [r1]
		cmp		r0,#'\r'		@ CR: ignore
		beq		1b
		cmp		r0,#'\n'		@ NL: end of editing
#else
		@ Proteus ISIS
		cmp		r0,#'\n'		@ NL: ignore
     544:	e350000a 	cmp	r0, #10
		beq		1b
     548:	0afffffa 	beq	538 <_gets+0x14>
		cmp		r0,#'\r'		@ CR: end of editing
     54c:	e350000d 	cmp	r0, #13
#endif
		bne		3f
     550:	1a000004 	bne	568 <_gets+0x44>
		mov		r1,#0			@ terminate string
     554:	e3a01000 	mov	r1, #0
		strb	r1,[r4],#1
     558:	e4c41001 	strb	r1, [r4], #1
		sub		r0,r4,r6		@ return # bytes
     55c:	e0440006 	sub	r0, r4, r6
		sub		r0,r0,#1		@ do not include zero ending in count
     560:	e2400001 	sub	r0, r0, #1
		ldmfd	sp!,{r4-r6,pc}	@ 
     564:	e8bd8070 	pop	{r4, r5, r6, pc}
3:		cmp		r0,#127			@ backspace
     568:	e350007f 	cmp	r0, #127	; 0x7f
		beq		35f
     56c:	0a000001 	beq	578 <_gets+0x54>
		cmp		r0,#8
     570:	e3500008 	cmp	r0, #8
		bne		4f
     574:	1a000005 	bne	590 <_gets+0x6c>
35:		cmp		r4,r6			@ erase only if there is some data in buffer
     578:	e1540006 	cmp	r4, r6
		beq		1b
     57c:	0affffed 	beq	538 <_gets+0x14>
		sub		r4,r4,#1
     580:	e2444001 	sub	r4, r4, #1
		adr		r0,10f			@ print erase string
     584:	e28f001c 	add	r0, pc, #28
		adr		lr,1b			@ _puts returns to label 1:
     588:	e24fe058 	sub	lr, pc, #88	; 0x58
		b		_puts
     58c:	eaffffb1 	b	458 <_puts>
4:		cmp		r4,r5			@ check for buffer full
     590:	e1540005 	cmp	r4, r5
		beq		1b
     594:	0affffe7 	beq	538 <_gets+0x14>
		strb	r0,[r4],#1		@ store byte
     598:	e4c40001 	strb	r0, [r4], #1
		ldr		r1,=_vputch		@ echo
     59c:	e59f105c 	ldr	r1, [pc, #92]	; 600 <_U0getch+0x3c>
		adr		lr,1b			@ *_vputch returns to label 1:
     5a0:	e24fe070 	sub	lr, pc, #112	; 0x70
		ldr		pc,[r1]
     5a4:	e591f000 	ldr	pc, [r1]
     5a8:	00082008 	.word	0x00082008

000005ac <_U0putch>:
	/* UART0 print character routine		  */
	/******************************************/
		.global _U0putch

_U0putch:
		ldr     r1,=0xE000C000  @ UART0 THR
     5ac:	e59f1028 	ldr	r1, [pc, #40]	; 5dc <_U0getch+0x18>
1:		ldrb	r2,[r1,#0x14]	@ UART0 LSR, wait until THRE is one
     5b0:	e5d12014 	ldrb	r2, [r1, #20]
		tst		r2,#0x20
     5b4:	e3120020 	tst	r2, #32
		beq		1b
     5b8:	0afffffc 	beq	5b0 <_U0putch+0x4>
		strb	r0,[r1]
     5bc:	e5c10000 	strb	r0, [r1]
		mov		pc,lr
     5c0:	e1a0f00e 	mov	pc, lr

000005c4 <_U0getch>:
	/* UART 0 read character routine		  */
	/******************************************/
		.global _U0getch

_U0getch:
		ldr     r1,=0xE000C000  @ UART0 THR
     5c4:	e59f1010 	ldr	r1, [pc, #16]	; 5dc <_U0getch+0x18>
1:		ldrb	r0,[r1,#0x14]	@ UART0 LSR, wait until THRE is one
     5c8:	e5d10014 	ldrb	r0, [r1, #20]
		tst		r0,#1
     5cc:	e3100001 	tst	r0, #1
		beq		1b
     5d0:	0afffffc 	beq	5c8 <_U0getch+0x4>
		ldrb	r0,[r1]
     5d4:	e5d10000 	ldrb	r0, [r1]
		mov		pc,lr
     5d8:	e1a0f00e 	mov	pc, lr
     5dc:	e000c000 	.word	0xe000c000
     5e0:	40010000 	.word	0x40010000
     5e4:	e01fc000 	.word	0xe01fc000
     5e8:	00015b48 	.word	0x00015b48
     5ec:	40000000 	.word	0x40000000
     5f0:	40000820 	.word	0x40000820
     5f4:	40000820 	.word	0x40000820
     5f8:	40000bc8 	.word	0x40000bc8
     5fc:	e01fc0c0 	.word	0xe01fc0c0
     600:	40000000 	.word	0x40000000
     604:	40000004 	.word	0x40000004
     608:	e1a00000 	nop			; (mov r0, r0)
     60c:	e1a00000 	nop			; (mov r0, r0)
     610:	e1a00000 	nop			; (mov r0, r0)
     614:	e1a00000 	nop			; (mov r0, r0)
     618:	e1a00000 	nop			; (mov r0, r0)
     61c:	e1a00000 	nop			; (mov r0, r0)
     620:	e1a00000 	nop			; (mov r0, r0)
     624:	e1a00000 	nop			; (mov r0, r0)
     628:	e1a00000 	nop			; (mov r0, r0)
     62c:	e1a00000 	nop			; (mov r0, r0)
     630:	e1a00000 	nop			; (mov r0, r0)
     634:	e1a00000 	nop			; (mov r0, r0)
     638:	e1a00000 	nop			; (mov r0, r0)
     63c:	e1a00000 	nop			; (mov r0, r0)

00000640 <canMoveDir>:
     640:	e59f3090 	ldr	r3, [pc, #144]	; 6d8 <canMoveDir+0x98>
     644:	e2400004 	sub	r0, r0, #4
     648:	e2411030 	sub	r1, r1, #48	; 0x30
     64c:	e52d4004 	push	{r4}		; (str r4, [sp, #-4]!)
     650:	e0cc4093 	smull	r4, ip, r3, r0
     654:	e0c34391 	smull	r4, r3, r1, r3
     658:	e1a01fc1 	asr	r1, r1, #31
     65c:	e1a00fc0 	asr	r0, r0, #31
     660:	e3520000 	cmp	r2, #0
     664:	e0611143 	rsb	r1, r1, r3, asr #2
     668:	e060c14c 	rsb	ip, r0, ip, asr #2
     66c:	02411001 	subeq	r1, r1, #1
     670:	0a000002 	beq	680 <canMoveDir+0x40>
     674:	e3520001 	cmp	r2, #1
     678:	02811001 	addeq	r1, r1, #1
     67c:	1a00000f 	bne	6c0 <canMoveDir+0x80>
     680:	e1a00fa1 	lsr	r0, r1, #31
     684:	e35c0020 	cmp	ip, #32
     688:	83800001 	orrhi	r0, r0, #1
     68c:	e3500000 	cmp	r0, #0
     690:	13a00000 	movne	r0, #0
     694:	1a000007 	bne	6b8 <canMoveDir+0x78>
     698:	e3510011 	cmp	r1, #17
     69c:	ca000005 	bgt	6b8 <canMoveDir+0x78>
     6a0:	e0811201 	add	r1, r1, r1, lsl #4
     6a4:	e59f3030 	ldr	r3, [pc, #48]	; 6dc <canMoveDir+0x9c>
     6a8:	e08cc081 	add	ip, ip, r1, lsl #1
     6ac:	e7d3000c 	ldrb	r0, [r3, ip]
     6b0:	e2500001 	subs	r0, r0, #1
     6b4:	13a00001 	movne	r0, #1
     6b8:	e8bd0010 	pop	{r4}
     6bc:	e12fff1e 	bx	lr
     6c0:	e3520002 	cmp	r2, #2
     6c4:	024cc001 	subeq	ip, ip, #1
     6c8:	0affffec 	beq	680 <canMoveDir+0x40>
     6cc:	e3520003 	cmp	r2, #3
     6d0:	028cc001 	addeq	ip, ip, #1
     6d4:	eaffffe9 	b	680 <canMoveDir+0x40>
     6d8:	2aaaaaab 	.word	0x2aaaaaab
     6dc:	40000820 	.word	0x40000820

000006e0 <initGame>:
     6e0:	e92d4ff0 	push	{r4, r5, r6, r7, r8, r9, sl, fp, lr}
     6e4:	e59f51a0 	ldr	r5, [pc, #416]	; 88c <initGame+0x1ac>
     6e8:	e59fc1a0 	ldr	ip, [pc, #416]	; 890 <initGame+0x1b0>
     6ec:	e1a0e005 	mov	lr, r5
     6f0:	e24dd00c 	sub	sp, sp, #12
     6f4:	e2855f99 	add	r5, r5, #612	; 0x264
     6f8:	e1a0100e 	mov	r1, lr
     6fc:	e3a04000 	mov	r4, #0
     700:	e06ec00c 	rsb	ip, lr, ip
     704:	e3a03000 	mov	r3, #0
     708:	e08c0001 	add	r0, ip, r1
     70c:	e7d02003 	ldrb	r2, [r0, r3]
     710:	e7c12003 	strb	r2, [r1, r3]
static void initGame(void)
{
    int r, c, g;

    for (r = 0; r < MAP_ROWS; r++) {
        for (c = 0; c < MAP_COLS; c++) map[r][c] = originalMap[r][c];
     714:	e2833001 	add	r3, r3, #1
     718:	e3530021 	cmp	r3, #33	; 0x21
     71c:	1afffffa 	bne	70c <initGame+0x2c>
        map[r][MAP_COLS] = '\0';
     720:	e5c14021 	strb	r4, [r1, #33]	; 0x21
     724:	e2811022 	add	r1, r1, #34	; 0x22
/* =================================================================== */
static void initGame(void)
{
    int r, c, g;

    for (r = 0; r < MAP_ROWS; r++) {
     728:	e1510005 	cmp	r1, r5
        for (c = 0; c < MAP_COLS; c++) map[r][c] = originalMap[r][c];
        map[r][MAP_COLS] = '\0';
     72c:	e3a02000 	mov	r2, #0
/* =================================================================== */
static void initGame(void)
{
    int r, c, g;

    for (r = 0; r < MAP_ROWS; r++) {
     730:	1afffff3 	bne	704 <initGame+0x24>
        for (c = 0; c < MAP_COLS; c++) map[r][c] = originalMap[r][c];
        map[r][MAP_COLS] = '\0';
    }

    for (g = 0; g < GHOST_COUNT; g++) ghosts[g].type = -1;
     734:	e3e01000 	mvn	r1, #0
    totalCoins = 0;
     738:	e1a03002 	mov	r3, r2
     73c:	e58e2294 	str	r2, [lr, #660]	; 0x294
    for (r = 0; r < MAP_ROWS; r++) {
        for (c = 0; c < MAP_COLS; c++) map[r][c] = originalMap[r][c];
        map[r][MAP_COLS] = '\0';
    }

    for (g = 0; g < GHOST_COUNT; g++) ghosts[g].type = -1;
     740:	e58e1270 	str	r1, [lr, #624]	; 0x270
     744:	e58e1280 	str	r1, [lr, #640]	; 0x280
     748:	e58e1290 	str	r1, [lr, #656]	; 0x290
    totalCoins = 0;
     74c:	e59ec298 	ldr	ip, [lr, #664]	; 0x298
     750:	e59e229c 	ldr	r2, [lr, #668]	; 0x29c
                pacPixX = X_OFFSET + c * TW;
                pacPixY = Y_OFFSET + r * TW;
                map[r][c] = EMPTY;
            } else if (map[r][c] == GHOST) {
                for (g = 0; g < GHOST_COUNT; g++)
                    if (ghosts[g].type == -1) {
     754:	e59f5130 	ldr	r5, [pc, #304]	; 88c <initGame+0x1ac>
        for (c = 0; c < MAP_COLS; c++) map[r][c] = originalMap[r][c];
        map[r][MAP_COLS] = '\0';
    }

    for (g = 0; g < GHOST_COUNT; g++) ghosts[g].type = -1;
    totalCoins = 0;
     758:	e3a06030 	mov	r6, #48	; 0x30

    for (r = 0; r < MAP_ROWS; r++) {
     75c:	e1a08003 	mov	r8, r3
                map[r][c] = EMPTY;
            } else if (map[r][c] == GHOST) {
                for (g = 0; g < GHOST_COUNT; g++)
                    if (ghosts[g].type == -1) {
                        ghosts[g].x = c; ghosts[g].y = r;
                        ghosts[g].under = EMPTY;
     760:	e3a07045 	mov	r7, #69	; 0x45
}

/* =================================================================== */
/*                         INICIALIZACIÓN                              */
/* =================================================================== */
static void initGame(void)
     764:	e088a208 	add	sl, r8, r8, lsl #4
     768:	e08ea08a 	add	sl, lr, sl, lsl #1
     76c:	e3a04004 	mov	r4, #4
     770:	e3a00000 	mov	r0, #0
     774:	ea000005 	b	790 <initGame+0xb0>
                        ghosts[g].under = EMPTY;
                        ghosts[g].type  = g;
                        ghosts[g].dir   = (g == 0) ? DIR_RIGHT : DIR_NONE;
                        break;
                    }
            } else if (map[r][c] == COIN) totalCoins++;
     778:	e3510043 	cmp	r1, #67	; 0x43
     77c:	02833001 	addeq	r3, r3, #1

    for (g = 0; g < GHOST_COUNT; g++) ghosts[g].type = -1;
    totalCoins = 0;

    for (r = 0; r < MAP_ROWS; r++) {
        for (c = 0; c < MAP_COLS; c++) {
     780:	e2800001 	add	r0, r0, #1
     784:	e3500021 	cmp	r0, #33	; 0x21
     788:	e2844018 	add	r4, r4, #24
     78c:	0a00001e 	beq	80c <initGame+0x12c>
            if (map[r][c] == PACMAN) {
     790:	e4da1001 	ldrb	r1, [sl], #1
     794:	e3510050 	cmp	r1, #80	; 0x50
                pacPixX = X_OFFSET + c * TW;
     798:	01a0c004 	moveq	ip, r4
                pacPixY = Y_OFFSET + r * TW;
                map[r][c] = EMPTY;
     79c:	054a7001 	strbeq	r7, [sl, #-1]

    for (r = 0; r < MAP_ROWS; r++) {
        for (c = 0; c < MAP_COLS; c++) {
            if (map[r][c] == PACMAN) {
                pacPixX = X_OFFSET + c * TW;
                pacPixY = Y_OFFSET + r * TW;
     7a0:	01a02006 	moveq	r2, r6
    for (g = 0; g < GHOST_COUNT; g++) ghosts[g].type = -1;
    totalCoins = 0;

    for (r = 0; r < MAP_ROWS; r++) {
        for (c = 0; c < MAP_COLS; c++) {
            if (map[r][c] == PACMAN) {
     7a4:	0afffff5 	beq	780 <initGame+0xa0>
                pacPixX = X_OFFSET + c * TW;
                pacPixY = Y_OFFSET + r * TW;
                map[r][c] = EMPTY;
            } else if (map[r][c] == GHOST) {
     7a8:	e3510047 	cmp	r1, #71	; 0x47
     7ac:	1afffff1 	bne	778 <initGame+0x98>
                for (g = 0; g < GHOST_COUNT; g++)
                    if (ghosts[g].type == -1) {
     7b0:	e59e1270 	ldr	r1, [lr, #624]	; 0x270
     7b4:	e3710001 	cmn	r1, #1
     7b8:	0a00002a 	beq	868 <initGame+0x188>
     7bc:	e5951280 	ldr	r1, [r5, #640]	; 0x280
     7c0:	e3710001 	cmn	r1, #1
     7c4:	0a00002e 	beq	884 <initGame+0x1a4>
     7c8:	e5951290 	ldr	r1, [r5, #656]	; 0x290
     7cc:	e3710001 	cmn	r1, #1
            if (map[r][c] == PACMAN) {
                pacPixX = X_OFFSET + c * TW;
                pacPixY = Y_OFFSET + r * TW;
                map[r][c] = EMPTY;
            } else if (map[r][c] == GHOST) {
                for (g = 0; g < GHOST_COUNT; g++)
     7d0:	03a0b002 	moveq	fp, #2
                    if (ghosts[g].type == -1) {
     7d4:	1affffe9 	bne	780 <initGame+0xa0>
                        ghosts[g].x = c; ghosts[g].y = r;
     7d8:	e1a0120b 	lsl	r1, fp, #4
     7dc:	e08e9001 	add	r9, lr, r1
     7e0:	e5890264 	str	r0, [r9, #612]	; 0x264
     7e4:	e5898268 	str	r8, [r9, #616]	; 0x268
                        ghosts[g].under = EMPTY;
     7e8:	e5c9726d 	strb	r7, [r9, #621]	; 0x26d
                        ghosts[g].type  = g;
     7ec:	e589b270 	str	fp, [r9, #624]	; 0x270
                        ghosts[g].dir   = (g == 0) ? DIR_RIGHT : DIR_NONE;
     7f0:	e3a09004 	mov	r9, #4

    for (g = 0; g < GHOST_COUNT; g++) ghosts[g].type = -1;
    totalCoins = 0;

    for (r = 0; r < MAP_ROWS; r++) {
        for (c = 0; c < MAP_COLS; c++) {
     7f4:	e2800001 	add	r0, r0, #1
                for (g = 0; g < GHOST_COUNT; g++)
                    if (ghosts[g].type == -1) {
                        ghosts[g].x = c; ghosts[g].y = r;
                        ghosts[g].under = EMPTY;
                        ghosts[g].type  = g;
                        ghosts[g].dir   = (g == 0) ? DIR_RIGHT : DIR_NONE;
     7f8:	e08e1001 	add	r1, lr, r1

    for (g = 0; g < GHOST_COUNT; g++) ghosts[g].type = -1;
    totalCoins = 0;

    for (r = 0; r < MAP_ROWS; r++) {
        for (c = 0; c < MAP_COLS; c++) {
     7fc:	e3500021 	cmp	r0, #33	; 0x21
                for (g = 0; g < GHOST_COUNT; g++)
                    if (ghosts[g].type == -1) {
                        ghosts[g].x = c; ghosts[g].y = r;
                        ghosts[g].under = EMPTY;
                        ghosts[g].type  = g;
                        ghosts[g].dir   = (g == 0) ? DIR_RIGHT : DIR_NONE;
     800:	e5c1926c 	strb	r9, [r1, #620]	; 0x26c

    for (g = 0; g < GHOST_COUNT; g++) ghosts[g].type = -1;
    totalCoins = 0;

    for (r = 0; r < MAP_ROWS; r++) {
        for (c = 0; c < MAP_COLS; c++) {
     804:	e2844018 	add	r4, r4, #24
     808:	1affffe0 	bne	790 <initGame+0xb0>
    }

    for (g = 0; g < GHOST_COUNT; g++) ghosts[g].type = -1;
    totalCoins = 0;

    for (r = 0; r < MAP_ROWS; r++) {
     80c:	e2888001 	add	r8, r8, #1
     810:	e3580012 	cmp	r8, #18
     814:	e2866018 	add	r6, r6, #24
     818:	1affffd1 	bne	764 <initGame+0x84>
            } else if (map[r][c] == COIN) totalCoins++;
        }
    }

    lives = 3; score = 0;
    desiredDir = currentDir = DIR_NONE;
     81c:	e59f4070 	ldr	r4, [pc, #112]	; 894 <initGame+0x1b4>
                    }
            } else if (map[r][c] == COIN) totalCoins++;
        }
    }

    lives = 3; score = 0;
     820:	e3a06000 	mov	r6, #0
    desiredDir = currentDir = DIR_NONE;
     824:	e3a05004 	mov	r5, #4

    for (r = 0; r < MAP_ROWS; r++) {
        for (c = 0; c < MAP_COLS; c++) {
            if (map[r][c] == PACMAN) {
                pacPixX = X_OFFSET + c * TW;
                pacPixY = Y_OFFSET + r * TW;
     828:	e58e3294 	str	r3, [lr, #660]	; 0x294
                    }
            } else if (map[r][c] == COIN) totalCoins++;
        }
    }

    lives = 3; score = 0;
     82c:	e3a03003 	mov	r3, #3
    desiredDir = currentDir = DIR_NONE;

    struct timeval tv;
    gettimeofday(&tv, NULL);
     830:	e1a0000d 	mov	r0, sp
     834:	e1a01006 	mov	r1, r6

    for (r = 0; r < MAP_ROWS; r++) {
        for (c = 0; c < MAP_COLS; c++) {
            if (map[r][c] == PACMAN) {
                pacPixX = X_OFFSET + c * TW;
                pacPixY = Y_OFFSET + r * TW;
     838:	e58ec298 	str	ip, [lr, #664]	; 0x298
     83c:	e58e229c 	str	r2, [lr, #668]	; 0x29c
                    }
            } else if (map[r][c] == COIN) totalCoins++;
        }
    }

    lives = 3; score = 0;
     840:	e58e32a0 	str	r3, [lr, #672]	; 0x2a0
     844:	e58e62a4 	str	r6, [lr, #676]	; 0x2a4
    desiredDir = currentDir = DIR_NONE;
     848:	e5c45000 	strb	r5, [r4]
     84c:	e5c45001 	strb	r5, [r4, #1]

    struct timeval tv;
    gettimeofday(&tv, NULL);
     850:	eb001ead 	bl	830c <gettimeofday>
    srand((unsigned)tv.tv_usec);
     854:	e59d0004 	ldr	r0, [sp, #4]
     858:	eb001e75 	bl	8234 <srand>
}
     85c:	e28dd00c 	add	sp, sp, #12
     860:	e8bd4ff0 	pop	{r4, r5, r6, r7, r8, r9, sl, fp, lr}
     864:	e12fff1e 	bx	lr
            } else if (map[r][c] == GHOST) {
                for (g = 0; g < GHOST_COUNT; g++)
                    if (ghosts[g].type == -1) {
                        ghosts[g].x = c; ghosts[g].y = r;
                        ghosts[g].under = EMPTY;
                        ghosts[g].type  = g;
     868:	e3a01000 	mov	r1, #0
                pacPixY = Y_OFFSET + r * TW;
                map[r][c] = EMPTY;
            } else if (map[r][c] == GHOST) {
                for (g = 0; g < GHOST_COUNT; g++)
                    if (ghosts[g].type == -1) {
                        ghosts[g].x = c; ghosts[g].y = r;
     86c:	e5850264 	str	r0, [r5, #612]	; 0x264
     870:	e5858268 	str	r8, [r5, #616]	; 0x268
                        ghosts[g].under = EMPTY;
     874:	e5c5726d 	strb	r7, [r5, #621]	; 0x26d
                        ghosts[g].type  = g;
     878:	e5851270 	str	r1, [r5, #624]	; 0x270
                        ghosts[g].dir   = (g == 0) ? DIR_RIGHT : DIR_NONE;
     87c:	e3a09003 	mov	r9, #3
     880:	eaffffdb 	b	7f4 <initGame+0x114>
            if (map[r][c] == PACMAN) {
                pacPixX = X_OFFSET + c * TW;
                pacPixY = Y_OFFSET + r * TW;
                map[r][c] = EMPTY;
            } else if (map[r][c] == GHOST) {
                for (g = 0; g < GHOST_COUNT; g++)
     884:	e3a0b001 	mov	fp, #1
     888:	eaffffd2 	b	7d8 <initGame+0xf8>
     88c:	40000820 	.word	0x40000820
     890:	00008878 	.word	0x00008878
     894:	40000008 	.word	0x40000008

00000898 <drawTile>:

/* =================================================================== */
/*                         DIBUJO MAPA & HUD                           */
/* =================================================================== */
static void drawTile(int r, int c)
{
     898:	e92d4008 	push	{r3, lr}
    int px = X_OFFSET + c * TW;
    int py = Y_OFFSET + r * TW;
    switch (map[r][c]) {
     89c:	e59f2210 	ldr	r2, [pc, #528]	; ab4 <drawTile+0x21c>
     8a0:	e0803200 	add	r3, r0, r0, lsl #4
     8a4:	e0813083 	add	r3, r1, r3, lsl #1
     8a8:	e7d23003 	ldrb	r3, [r2, r3]
/* =================================================================== */
/*                         DIBUJO MAPA & HUD                           */
/* =================================================================== */
static void drawTile(int r, int c)
{
    int px = X_OFFSET + c * TW;
     8ac:	e0811081 	add	r1, r1, r1, lsl #1
    int py = Y_OFFSET + r * TW;
     8b0:	e0800080 	add	r0, r0, r0, lsl #1
/* =================================================================== */
/*                         DIBUJO MAPA & HUD                           */
/* =================================================================== */
static void drawTile(int r, int c)
{
    int px = X_OFFSET + c * TW;
     8b4:	e1a02181 	lsl	r2, r1, #3
    int py = Y_OFFSET + r * TW;
    switch (map[r][c]) {
     8b8:	e2433030 	sub	r3, r3, #48	; 0x30
/*                         DIBUJO MAPA & HUD                           */
/* =================================================================== */
static void drawTile(int r, int c)
{
    int px = X_OFFSET + c * TW;
    int py = Y_OFFSET + r * TW;
     8bc:	e1a01180 	lsl	r1, r0, #3
     8c0:	e2811030 	add	r1, r1, #48	; 0x30
/* =================================================================== */
/*                         DIBUJO MAPA & HUD                           */
/* =================================================================== */
static void drawTile(int r, int c)
{
    int px = X_OFFSET + c * TW;
     8c4:	e2820004 	add	r0, r2, #4
    int py = Y_OFFSET + r * TW;
    switch (map[r][c]) {
     8c8:	e353002a 	cmp	r3, #42	; 0x2a
     8cc:	979ff103 	ldrls	pc, [pc, r3, lsl #2]
     8d0:	ea00002f 	b	994 <drawTile+0xfc>
     8d4:	000009a4 	.word	0x000009a4
     8d8:	000009b4 	.word	0x000009b4
     8dc:	000009c4 	.word	0x000009c4
     8e0:	000009d4 	.word	0x000009d4
     8e4:	000009e4 	.word	0x000009e4
     8e8:	000009f4 	.word	0x000009f4
     8ec:	00000a04 	.word	0x00000a04
     8f0:	00000a14 	.word	0x00000a14
     8f4:	00000a24 	.word	0x00000a24
     8f8:	00000a34 	.word	0x00000a34
     8fc:	00000994 	.word	0x00000994
     900:	00000994 	.word	0x00000994
     904:	00000994 	.word	0x00000994
     908:	00000994 	.word	0x00000994
     90c:	00000994 	.word	0x00000994
     910:	00000994 	.word	0x00000994
     914:	00000994 	.word	0x00000994
     918:	00000a44 	.word	0x00000a44
     91c:	00000a54 	.word	0x00000a54
     920:	00000a64 	.word	0x00000a64
     924:	00000994 	.word	0x00000994
     928:	00000a74 	.word	0x00000a74
     92c:	00000994 	.word	0x00000994
     930:	00000a84 	.word	0x00000a84
     934:	00000994 	.word	0x00000994
     938:	00000994 	.word	0x00000994
     93c:	00000994 	.word	0x00000994
     940:	00000994 	.word	0x00000994
     944:	00000994 	.word	0x00000994
     948:	00000994 	.word	0x00000994
     94c:	00000994 	.word	0x00000994
     950:	00000994 	.word	0x00000994
     954:	00000994 	.word	0x00000994
     958:	00000994 	.word	0x00000994
     95c:	00000994 	.word	0x00000994
     960:	00000994 	.word	0x00000994
     964:	00000994 	.word	0x00000994
     968:	00000994 	.word	0x00000994
     96c:	00000a94 	.word	0x00000a94
     970:	00000994 	.word	0x00000994
     974:	00000994 	.word	0x00000994
     978:	00000aa4 	.word	0x00000aa4
     97c:	00000980 	.word	0x00000980
	case WALL_HOR:   	XPM_PintaAtxNyN(px, py, 56, pacman);  break;
	case WALL_HOR_LIM1:   	XPM_PintaAtxNyN(px, py, 55, pacman);  break;
	case WALL_HOR_LIM2:   	XPM_PintaAtxNyN(px, py, 57, pacman);  break;
	case WALL_VER:   	XPM_PintaAtxNyN(px, py, 66, pacman);  break;
	case WALL_VER_LIM1:   	XPM_PintaAtxNyN(px, py, 54, pacman);  break;
	case WALL_VER_LIM2:   	XPM_PintaAtxNyN(px, py, 78, pacman);  break;
     980:	e3a0204e 	mov	r2, #78	; 0x4e
     984:	e59f312c 	ldr	r3, [pc, #300]	; ab8 <drawTile+0x220>
     988:	eb001ccd 	bl	7cc4 <XPM_PintaAtxNyN>
        case EMPTY:  		XPM_PintaAtxNyN(px, py, 61, pacman);  break;
	case POWER_UP:  	XPM_PintaAtxNyN(px, py, 80, pacman);  break;
        case GHOST:  		XPM_PintaAtxNyN(px, py, 0, pacman);   break;
        default:     		XPM_PintaAtxNyN(px, py, 11, pacman);
    }
}
     98c:	e8bd4008 	pop	{r3, lr}
     990:	e12fff1e 	bx	lr
	case WALL_VER_LIM2:   	XPM_PintaAtxNyN(px, py, 78, pacman);  break;
        case COIN:   		XPM_PintaAtxNyN(px, py, 81, pacman);  break;
        case EMPTY:  		XPM_PintaAtxNyN(px, py, 61, pacman);  break;
	case POWER_UP:  	XPM_PintaAtxNyN(px, py, 80, pacman);  break;
        case GHOST:  		XPM_PintaAtxNyN(px, py, 0, pacman);   break;
        default:     		XPM_PintaAtxNyN(px, py, 11, pacman);
     994:	e3a0200b 	mov	r2, #11
     998:	e59f3118 	ldr	r3, [pc, #280]	; ab8 <drawTile+0x220>
     99c:	eb001cc8 	bl	7cc4 <XPM_PintaAtxNyN>
     9a0:	eafffff9 	b	98c <drawTile+0xf4>
static void drawTile(int r, int c)
{
    int px = X_OFFSET + c * TW;
    int py = Y_OFFSET + r * TW;
    switch (map[r][c]) {
        case WALL_UP:   	XPM_PintaAtxNyN(px, py, 49, pacman);  break;
     9a4:	e3a02031 	mov	r2, #49	; 0x31
     9a8:	e59f3108 	ldr	r3, [pc, #264]	; ab8 <drawTile+0x220>
     9ac:	eb001cc4 	bl	7cc4 <XPM_PintaAtxNyN>
     9b0:	eafffff5 	b	98c <drawTile+0xf4>
	case WALL_RIGHT:	XPM_PintaAtxNyN(px, py, 62, pacman);  break;
	case WALL_LEFT:   	XPM_PintaAtxNyN(px, py, 60, pacman);  break;
	case WALL_DOWN:   	XPM_PintaAtxNyN(px, py, 73, pacman);  break;
     9b4:	e3a02049 	mov	r2, #73	; 0x49
     9b8:	e59f30f8 	ldr	r3, [pc, #248]	; ab8 <drawTile+0x220>
     9bc:	eb001cc0 	bl	7cc4 <XPM_PintaAtxNyN>
     9c0:	eafffff1 	b	98c <drawTile+0xf4>
{
    int px = X_OFFSET + c * TW;
    int py = Y_OFFSET + r * TW;
    switch (map[r][c]) {
        case WALL_UP:   	XPM_PintaAtxNyN(px, py, 49, pacman);  break;
	case WALL_RIGHT:	XPM_PintaAtxNyN(px, py, 62, pacman);  break;
     9c4:	e3a0203e 	mov	r2, #62	; 0x3e
     9c8:	e59f30e8 	ldr	r3, [pc, #232]	; ab8 <drawTile+0x220>
     9cc:	eb001cbc 	bl	7cc4 <XPM_PintaAtxNyN>
     9d0:	eaffffed 	b	98c <drawTile+0xf4>
	case WALL_LEFT:   	XPM_PintaAtxNyN(px, py, 60, pacman);  break;
     9d4:	e3a0203c 	mov	r2, #60	; 0x3c
     9d8:	e59f30d8 	ldr	r3, [pc, #216]	; ab8 <drawTile+0x220>
     9dc:	eb001cb8 	bl	7cc4 <XPM_PintaAtxNyN>
     9e0:	eaffffe9 	b	98c <drawTile+0xf4>
	case WALL_DOWN:   	XPM_PintaAtxNyN(px, py, 73, pacman);  break;
	case CORNER_UPR:   	XPM_PintaAtxNyN(px, py, 50, pacman);  break;
     9e4:	e3a02032 	mov	r2, #50	; 0x32
     9e8:	e59f30c8 	ldr	r3, [pc, #200]	; ab8 <drawTile+0x220>
     9ec:	eb001cb4 	bl	7cc4 <XPM_PintaAtxNyN>
     9f0:	eaffffe5 	b	98c <drawTile+0xf4>
	case CORNER_UPL:   	XPM_PintaAtxNyN(px, py, 48, pacman);  break;
     9f4:	e3a02030 	mov	r2, #48	; 0x30
     9f8:	e59f30b8 	ldr	r3, [pc, #184]	; ab8 <drawTile+0x220>
     9fc:	eb001cb0 	bl	7cc4 <XPM_PintaAtxNyN>
     a00:	eaffffe1 	b	98c <drawTile+0xf4>
	case CORNER_DOWNR:   	XPM_PintaAtxNyN(px, py, 74, pacman);  break;
     a04:	e3a0204a 	mov	r2, #74	; 0x4a
     a08:	e59f30a8 	ldr	r3, [pc, #168]	; ab8 <drawTile+0x220>
     a0c:	eb001cac 	bl	7cc4 <XPM_PintaAtxNyN>
     a10:	eaffffdd 	b	98c <drawTile+0xf4>
	case CORNER_DOWNL:   	XPM_PintaAtxNyN(px, py, 72, pacman);  break;
     a14:	e3a02048 	mov	r2, #72	; 0x48
     a18:	e59f3098 	ldr	r3, [pc, #152]	; ab8 <drawTile+0x220>
     a1c:	eb001ca8 	bl	7cc4 <XPM_PintaAtxNyN>
     a20:	eaffffd9 	b	98c <drawTile+0xf4>
	case WALL_HOR:   	XPM_PintaAtxNyN(px, py, 56, pacman);  break;
     a24:	e3a02038 	mov	r2, #56	; 0x38
     a28:	e59f3088 	ldr	r3, [pc, #136]	; ab8 <drawTile+0x220>
     a2c:	eb001ca4 	bl	7cc4 <XPM_PintaAtxNyN>
     a30:	eaffffd5 	b	98c <drawTile+0xf4>
	case WALL_HOR_LIM1:   	XPM_PintaAtxNyN(px, py, 55, pacman);  break;
	case WALL_HOR_LIM2:   	XPM_PintaAtxNyN(px, py, 57, pacman);  break;
	case WALL_VER:   	XPM_PintaAtxNyN(px, py, 66, pacman);  break;
     a34:	e3a02042 	mov	r2, #66	; 0x42
     a38:	e59f3078 	ldr	r3, [pc, #120]	; ab8 <drawTile+0x220>
     a3c:	eb001ca0 	bl	7cc4 <XPM_PintaAtxNyN>
     a40:	eaffffd1 	b	98c <drawTile+0xf4>
	case CORNER_UPR:   	XPM_PintaAtxNyN(px, py, 50, pacman);  break;
	case CORNER_UPL:   	XPM_PintaAtxNyN(px, py, 48, pacman);  break;
	case CORNER_DOWNR:   	XPM_PintaAtxNyN(px, py, 74, pacman);  break;
	case CORNER_DOWNL:   	XPM_PintaAtxNyN(px, py, 72, pacman);  break;
	case WALL_HOR:   	XPM_PintaAtxNyN(px, py, 56, pacman);  break;
	case WALL_HOR_LIM1:   	XPM_PintaAtxNyN(px, py, 55, pacman);  break;
     a44:	e3a02037 	mov	r2, #55	; 0x37
     a48:	e59f3068 	ldr	r3, [pc, #104]	; ab8 <drawTile+0x220>
     a4c:	eb001c9c 	bl	7cc4 <XPM_PintaAtxNyN>
     a50:	eaffffcd 	b	98c <drawTile+0xf4>
	case WALL_HOR_LIM2:   	XPM_PintaAtxNyN(px, py, 57, pacman);  break;
     a54:	e3a02039 	mov	r2, #57	; 0x39
     a58:	e59f3058 	ldr	r3, [pc, #88]	; ab8 <drawTile+0x220>
     a5c:	eb001c98 	bl	7cc4 <XPM_PintaAtxNyN>
     a60:	eaffffc9 	b	98c <drawTile+0xf4>
	case WALL_VER:   	XPM_PintaAtxNyN(px, py, 66, pacman);  break;
	case WALL_VER_LIM1:   	XPM_PintaAtxNyN(px, py, 54, pacman);  break;
	case WALL_VER_LIM2:   	XPM_PintaAtxNyN(px, py, 78, pacman);  break;
        case COIN:   		XPM_PintaAtxNyN(px, py, 81, pacman);  break;
     a64:	e3a02051 	mov	r2, #81	; 0x51
     a68:	e59f3048 	ldr	r3, [pc, #72]	; ab8 <drawTile+0x220>
     a6c:	eb001c94 	bl	7cc4 <XPM_PintaAtxNyN>
     a70:	eaffffc5 	b	98c <drawTile+0xf4>
        case EMPTY:  		XPM_PintaAtxNyN(px, py, 61, pacman);  break;
     a74:	e3a0203d 	mov	r2, #61	; 0x3d
     a78:	e59f3038 	ldr	r3, [pc, #56]	; ab8 <drawTile+0x220>
     a7c:	eb001c90 	bl	7cc4 <XPM_PintaAtxNyN>
     a80:	eaffffc1 	b	98c <drawTile+0xf4>
	case POWER_UP:  	XPM_PintaAtxNyN(px, py, 80, pacman);  break;
        case GHOST:  		XPM_PintaAtxNyN(px, py, 0, pacman);   break;
     a84:	e3a02000 	mov	r2, #0
     a88:	e59f3028 	ldr	r3, [pc, #40]	; ab8 <drawTile+0x220>
     a8c:	eb001c8c 	bl	7cc4 <XPM_PintaAtxNyN>
     a90:	eaffffbd 	b	98c <drawTile+0xf4>
	case WALL_VER:   	XPM_PintaAtxNyN(px, py, 66, pacman);  break;
	case WALL_VER_LIM1:   	XPM_PintaAtxNyN(px, py, 54, pacman);  break;
	case WALL_VER_LIM2:   	XPM_PintaAtxNyN(px, py, 78, pacman);  break;
        case COIN:   		XPM_PintaAtxNyN(px, py, 81, pacman);  break;
        case EMPTY:  		XPM_PintaAtxNyN(px, py, 61, pacman);  break;
	case POWER_UP:  	XPM_PintaAtxNyN(px, py, 80, pacman);  break;
     a94:	e3a02050 	mov	r2, #80	; 0x50
     a98:	e59f3018 	ldr	r3, [pc, #24]	; ab8 <drawTile+0x220>
     a9c:	eb001c88 	bl	7cc4 <XPM_PintaAtxNyN>
     aa0:	eaffffb9 	b	98c <drawTile+0xf4>
	case CORNER_DOWNL:   	XPM_PintaAtxNyN(px, py, 72, pacman);  break;
	case WALL_HOR:   	XPM_PintaAtxNyN(px, py, 56, pacman);  break;
	case WALL_HOR_LIM1:   	XPM_PintaAtxNyN(px, py, 55, pacman);  break;
	case WALL_HOR_LIM2:   	XPM_PintaAtxNyN(px, py, 57, pacman);  break;
	case WALL_VER:   	XPM_PintaAtxNyN(px, py, 66, pacman);  break;
	case WALL_VER_LIM1:   	XPM_PintaAtxNyN(px, py, 54, pacman);  break;
     aa4:	e3a02036 	mov	r2, #54	; 0x36
     aa8:	e59f3008 	ldr	r3, [pc, #8]	; ab8 <drawTile+0x220>
     aac:	eb001c84 	bl	7cc4 <XPM_PintaAtxNyN>
     ab0:	eaffffb5 	b	98c <drawTile+0xf4>
     ab4:	40000820 	.word	0x40000820
     ab8:	4000004c 	.word	0x4000004c

00000abc <dibuja_hud>:
   }
    drawPacman(pacPixX, pacPixY);
}

static void dibuja_hud(void)
{
     abc:	e92d4010 	push	{r4, lr}
    char buf[40];
    TFT_DrawFillSquareS(0, 0, SCREEN_W, Y_OFFSET, TFT_Color(50, 50, 50));
     ac0:	e3a00000 	mov	r0, #0
     ac4:	e59f4050 	ldr	r4, [pc, #80]	; b1c <dibuja_hud+0x60>
   }
    drawPacman(pacPixX, pacPixY);
}

static void dibuja_hud(void)
{
     ac8:	e24dd030 	sub	sp, sp, #48	; 0x30
    char buf[40];
    TFT_DrawFillSquareS(0, 0, SCREEN_W, Y_OFFSET, TFT_Color(50, 50, 50));
     acc:	e1a01000 	mov	r1, r0
     ad0:	e3a02e32 	mov	r2, #800	; 0x320
     ad4:	e3a03030 	mov	r3, #48	; 0x30
     ad8:	e58d4000 	str	r4, [sp]
     adc:	eb00153f 	bl	5fe0 <TFT_DrawFillSquareS>
    FG_Color = WHITE; BG_Color = TFT_Color(50, 50, 50);
     ae0:	e59f3038 	ldr	r3, [pc, #56]	; b20 <dibuja_hud+0x64>
     ae4:	e3e0c000 	mvn	ip, #0
     ae8:	e1c3c0b0 	strh	ip, [r3]
     aec:	e59f3030 	ldr	r3, [pc, #48]	; b24 <dibuja_hud+0x68>
    CF = BigFont;
     af0:	e59fc030 	ldr	ip, [pc, #48]	; b28 <dibuja_hud+0x6c>

static void dibuja_hud(void)
{
    char buf[40];
    TFT_DrawFillSquareS(0, 0, SCREEN_W, Y_OFFSET, TFT_Color(50, 50, 50));
    FG_Color = WHITE; BG_Color = TFT_Color(50, 50, 50);
     af4:	e1c340b0 	strh	r4, [r3]
    CF = BigFont;
     af8:	e59f302c 	ldr	r3, [pc, #44]	; b2c <dibuja_hud+0x70>
    //_sprintf(printdir, "VIDAS: %d  PUNTOS: %d", lives, score);
    TFT_print_xNyN(X_OFFSET, Y_OFFSET / 2 - 8, buf);
     afc:	e3a00004 	mov	r0, #4
     b00:	e3a01010 	mov	r1, #16
     b04:	e28d2008 	add	r2, sp, #8
static void dibuja_hud(void)
{
    char buf[40];
    TFT_DrawFillSquareS(0, 0, SCREEN_W, Y_OFFSET, TFT_Color(50, 50, 50));
    FG_Color = WHITE; BG_Color = TFT_Color(50, 50, 50);
    CF = BigFont;
     b08:	e583c000 	str	ip, [r3]
    //_sprintf(printdir, "VIDAS: %d  PUNTOS: %d", lives, score);
    TFT_print_xNyN(X_OFFSET, Y_OFFSET / 2 - 8, buf);
     b0c:	eb001790 	bl	6954 <TFT_print_xNyN>
}
     b10:	e28dd030 	add	sp, sp, #48	; 0x30
     b14:	e8bd4010 	pop	{r4, lr}
     b18:	e12fff1e 	bx	lr
     b1c:	00003186 	.word	0x00003186
     b20:	4000000c 	.word	0x4000000c
     b24:	40000ad4 	.word	0x40000ad4
     b28:	00008adc 	.word	0x00008adc
     b2c:	40000010 	.word	0x40000010

00000b30 <dibuja_mapa.isra.0>:
        case GHOST:  		XPM_PintaAtxNyN(px, py, 0, pacman);   break;
        default:     		XPM_PintaAtxNyN(px, py, 11, pacman);
    }
}

static void dibuja_mapa(const char m[][MAP_COLS + 1])
     b30:	e92d4038 	push	{r3, r4, r5, lr}
{
    XPM_Extract(pacman);
     b34:	e59f006c 	ldr	r0, [pc, #108]	; ba8 <dibuja_mapa.isra.0+0x78>
     b38:	eb001b07 	bl	775c <XPM_Extract>
    xpm_sx = TILE; xpm_sy = TILE; XPM_SetxNyN(SCALE, SCALE);
     b3c:	e59f2068 	ldr	r2, [pc, #104]	; bac <dibuja_mapa.isra.0+0x7c>
     b40:	e3a03018 	mov	r3, #24
     b44:	e5823000 	str	r3, [r2]
     b48:	e59f2060 	ldr	r2, [pc, #96]	; bb0 <dibuja_mapa.isra.0+0x80>
     b4c:	e3a00001 	mov	r0, #1
     b50:	e1a01000 	mov	r1, r0
     b54:	e5823000 	str	r3, [r2]

    int r, c;
    for (r = 0; r < MAP_ROWS; r++){
     b58:	e3a05000 	mov	r5, #0
}

static void dibuja_mapa(const char m[][MAP_COLS + 1])
{
    XPM_Extract(pacman);
    xpm_sx = TILE; xpm_sy = TILE; XPM_SetxNyN(SCALE, SCALE);
     b5c:	eb001c44 	bl	7c74 <XPM_SetxNyN>
        case GHOST:  		XPM_PintaAtxNyN(px, py, 0, pacman);   break;
        default:     		XPM_PintaAtxNyN(px, py, 11, pacman);
    }
}

static void dibuja_mapa(const char m[][MAP_COLS + 1])
     b60:	e3a04000 	mov	r4, #0
    xpm_sx = TILE; xpm_sy = TILE; XPM_SetxNyN(SCALE, SCALE);

    int r, c;
    for (r = 0; r < MAP_ROWS; r++){
        for (c = 0; c < MAP_COLS; c++){
            drawTile(r, c);}
     b64:	e1a01004 	mov	r1, r4
     b68:	e1a00005 	mov	r0, r5
    XPM_Extract(pacman);
    xpm_sx = TILE; xpm_sy = TILE; XPM_SetxNyN(SCALE, SCALE);

    int r, c;
    for (r = 0; r < MAP_ROWS; r++){
        for (c = 0; c < MAP_COLS; c++){
     b6c:	e2844001 	add	r4, r4, #1
            drawTile(r, c);}
     b70:	ebffff48 	bl	898 <drawTile>
    XPM_Extract(pacman);
    xpm_sx = TILE; xpm_sy = TILE; XPM_SetxNyN(SCALE, SCALE);

    int r, c;
    for (r = 0; r < MAP_ROWS; r++){
        for (c = 0; c < MAP_COLS; c++){
     b74:	e3540021 	cmp	r4, #33	; 0x21
     b78:	1afffff9 	bne	b64 <dibuja_mapa.isra.0+0x34>
{
    XPM_Extract(pacman);
    xpm_sx = TILE; xpm_sy = TILE; XPM_SetxNyN(SCALE, SCALE);

    int r, c;
    for (r = 0; r < MAP_ROWS; r++){
     b7c:	e2855001 	add	r5, r5, #1
     b80:	e3550012 	cmp	r5, #18
     b84:	1afffff5 	bne	b60 <dibuja_mapa.isra.0+0x30>
        drawTile(r0 + 1, c0 + 1);
}

static void drawPacman(int px, int py)
{
    XPM_PintaAtxNyN(px, py, 11, pacman);
     b88:	e59f3024 	ldr	r3, [pc, #36]	; bb4 <dibuja_mapa.isra.0+0x84>
     b8c:	e2830fa6 	add	r0, r3, #664	; 0x298
     b90:	e3a0200b 	mov	r2, #11
     b94:	e8900003 	ldm	r0, {r0, r1}
     b98:	e59f3008 	ldr	r3, [pc, #8]	; ba8 <dibuja_mapa.isra.0+0x78>
     b9c:	eb001c48 	bl	7cc4 <XPM_PintaAtxNyN>
    for (r = 0; r < MAP_ROWS; r++){
        for (c = 0; c < MAP_COLS; c++){
            drawTile(r, c);}
   }
    drawPacman(pacPixX, pacPixY);
}
     ba0:	e8bd4038 	pop	{r3, r4, r5, lr}
     ba4:	e12fff1e 	bx	lr
     ba8:	4000004c 	.word	0x4000004c
     bac:	40000bb4 	.word	0x40000bb4
     bb0:	40000bb8 	.word	0x40000bb8
     bb4:	40000820 	.word	0x40000820

00000bb8 <_gettimeofday>:
/*                        STUBS NEWLIB                                 */
/* =================================================================== */
int _gettimeofday(struct timeval *tv, void *tz)
{
    (void)tz;
    if (tv) { tv->tv_sec = 0; tv->tv_usec = 0; }
     bb8:	e3500000 	cmp	r0, #0
     bbc:	13a03000 	movne	r3, #0
     bc0:	15803000 	strne	r3, [r0]
     bc4:	15803004 	strne	r3, [r0, #4]
    return 0;
}
     bc8:	e3a00000 	mov	r0, #0
     bcc:	e12fff1e 	bx	lr

00000bd0 <_sbrk>:
{
    extern char _end;
    static char *heap_end = NULL;
    char *prev_heap_end;

    if (heap_end == NULL) heap_end = &_end;
     bd0:	e59f201c 	ldr	r2, [pc, #28]	; bf4 <_sbrk+0x24>
     bd4:	e59232a8 	ldr	r3, [r2, #680]	; 0x2a8
     bd8:	e59f1018 	ldr	r1, [pc, #24]	; bf8 <_sbrk+0x28>
     bdc:	e3530000 	cmp	r3, #0
     be0:	01a03001 	moveq	r3, r1
    prev_heap_end = heap_end;
    heap_end += incr;
     be4:	e0830000 	add	r0, r3, r0
     be8:	e58202a8 	str	r0, [r2, #680]	; 0x2a8
    return (void *)prev_heap_end;
}
     bec:	e1a00003 	mov	r0, r3
     bf0:	e12fff1e 	bx	lr
     bf4:	40000820 	.word	0x40000820
     bf8:	40001000 	.word	0x40001000

00000bfc <NT35510_Cmd>:
int LENX, LENY;
// ---------------------------------------------------
inline void NT35510_Cmd( unsigned short cmd)
{
 //RS_OFF; // Comando
 FIOCLR = (0xFFFF <<NT35510_DT) | NT35510_RS;
     bfc:	e59f301c 	ldr	r3, [pc, #28]	; c20 <NT35510_Cmd+0x24>
     c00:	e59f101c 	ldr	r1, [pc, #28]	; c24 <NT35510_Cmd+0x28>
 FIOSET = (cmd    <<NT35510_DT);
 WR_OFF;
     c04:	e3a02b02 	mov	r2, #2048	; 0x800
// ---------------------------------------------------
inline void NT35510_Cmd( unsigned short cmd)
{
 //RS_OFF; // Comando
 FIOCLR = (0xFFFF <<NT35510_DT) | NT35510_RS;
 FIOSET = (cmd    <<NT35510_DT);
     c08:	e1a00800 	lsl	r0, r0, #16
int LENX, LENY;
// ---------------------------------------------------
inline void NT35510_Cmd( unsigned short cmd)
{
 //RS_OFF; // Comando
 FIOCLR = (0xFFFF <<NT35510_DT) | NT35510_RS;
     c0c:	e5031fe3 	str	r1, [r3, #-4067]	; 0xfe3
 FIOSET = (cmd    <<NT35510_DT);
     c10:	e5030fe7 	str	r0, [r3, #-4071]	; 0xfe7
 WR_OFF;
     c14:	e5032fe3 	str	r2, [r3, #-4067]	; 0xfe3

 WR_ON;
     c18:	e5032fe7 	str	r2, [r3, #-4071]	; 0xfe7
}
     c1c:	e12fff1e 	bx	lr
     c20:	3fffcfff 	.word	0x3fffcfff
     c24:	ffff2000 	.word	0xffff2000

00000c28 <NT35510_Data>:
// ---------------------------------------------------
//inline
void NT35510_Data( unsigned short data)
{
 //RS_ON; // Data
 FIOCLR = (0xFFFF<<NT35510_DT);
     c28:	e59f3020 	ldr	r3, [pc, #32]	; c50 <NT35510_Data+0x28>
 FIOSET = (data  <<NT35510_DT) | NT35510_RS;
     c2c:	e1a00800 	lsl	r0, r0, #16
// ---------------------------------------------------
//inline
void NT35510_Data( unsigned short data)
{
 //RS_ON; // Data
 FIOCLR = (0xFFFF<<NT35510_DT);
     c30:	e59f101c 	ldr	r1, [pc, #28]	; c54 <NT35510_Data+0x2c>
 FIOSET = (data  <<NT35510_DT) | NT35510_RS;
 WR_OFF;
     c34:	e3a02b02 	mov	r2, #2048	; 0x800
//inline
void NT35510_Data( unsigned short data)
{
 //RS_ON; // Data
 FIOCLR = (0xFFFF<<NT35510_DT);
 FIOSET = (data  <<NT35510_DT) | NT35510_RS;
     c38:	e3800a02 	orr	r0, r0, #8192	; 0x2000
// ---------------------------------------------------
//inline
void NT35510_Data( unsigned short data)
{
 //RS_ON; // Data
 FIOCLR = (0xFFFF<<NT35510_DT);
     c3c:	e5031fe3 	str	r1, [r3, #-4067]	; 0xfe3
 FIOSET = (data  <<NT35510_DT) | NT35510_RS;
     c40:	e5030fe7 	str	r0, [r3, #-4071]	; 0xfe7
 WR_OFF;
     c44:	e5032fe3 	str	r2, [r3, #-4067]	; 0xfe3

 WR_ON; 
     c48:	e5032fe7 	str	r2, [r3, #-4071]	; 0xfe7
}
     c4c:	e12fff1e 	bx	lr
     c50:	3fffcfff 	.word	0x3fffcfff
     c54:	ffff0000 	.word	0xffff0000

00000c58 <NT35510_Data_>:
// ---------------------------------------------------
//inline 
void NT35510_Data_( unsigned short data)
{// Faster version
 //RS_ON; // Data
 FIOCLR = (0xFFFF<<NT35510_DT);
     c58:	e59f301c 	ldr	r3, [pc, #28]	; c7c <NT35510_Data_+0x24>
     c5c:	e59f101c 	ldr	r1, [pc, #28]	; c80 <NT35510_Data_+0x28>
 FIOSET = (data  <<NT35510_DT);
 WR_OFF;
     c60:	e3a02b02 	mov	r2, #2048	; 0x800
//inline 
void NT35510_Data_( unsigned short data)
{// Faster version
 //RS_ON; // Data
 FIOCLR = (0xFFFF<<NT35510_DT);
 FIOSET = (data  <<NT35510_DT);
     c64:	e1a00800 	lsl	r0, r0, #16
// ---------------------------------------------------
//inline 
void NT35510_Data_( unsigned short data)
{// Faster version
 //RS_ON; // Data
 FIOCLR = (0xFFFF<<NT35510_DT);
     c68:	e5031fe3 	str	r1, [r3, #-4067]	; 0xfe3
 FIOSET = (data  <<NT35510_DT);
     c6c:	e5030fe7 	str	r0, [r3, #-4071]	; 0xfe7
 WR_OFF;
     c70:	e5032fe3 	str	r2, [r3, #-4067]	; 0xfe3

 WR_ON;
     c74:	e5032fe7 	str	r2, [r3, #-4071]	; 0xfe7
}
     c78:	e12fff1e 	bx	lr
     c7c:	3fffcfff 	.word	0x3fffcfff
     c80:	ffff0000 	.word	0xffff0000

00000c84 <NT35510_Reg>:
// ---------------------------------------------------
void NT35510_Reg( unsigned short cmd, unsigned short data)
{
 RS_OFF; // Comando
     c84:	e59f3044 	ldr	r3, [pc, #68]	; cd0 <NT35510_Reg+0x4c>
 FIOCLR = (0xFFFF <<NT35510_DT);
     c88:	e59fc044 	ldr	ip, [pc, #68]	; cd4 <NT35510_Reg+0x50>

 WR_ON;
}
// ---------------------------------------------------
void NT35510_Reg( unsigned short cmd, unsigned short data)
{
     c8c:	e52d4004 	push	{r4}		; (str r4, [sp, #-4]!)
 RS_OFF; // Comando
 FIOCLR = (0xFFFF <<NT35510_DT);
 FIOSET = (cmd    <<NT35510_DT);
 WR_OFF;
     c90:	e3a02b02 	mov	r2, #2048	; 0x800
 WR_ON;
}
// ---------------------------------------------------
void NT35510_Reg( unsigned short cmd, unsigned short data)
{
 RS_OFF; // Comando
     c94:	e3a04a02 	mov	r4, #8192	; 0x2000
 FIOCLR = (0xFFFF <<NT35510_DT);
 FIOSET = (cmd    <<NT35510_DT);
     c98:	e1a00800 	lsl	r0, r0, #16
 WR_OFF;

 WR_ON;
 RS_ON; // Data
 FIOCLR = (0xFFFF<<NT35510_DT);
 FIOSET = (data  <<NT35510_DT);
     c9c:	e1a01801 	lsl	r1, r1, #16
 WR_ON;
}
// ---------------------------------------------------
void NT35510_Reg( unsigned short cmd, unsigned short data)
{
 RS_OFF; // Comando
     ca0:	e5034fe3 	str	r4, [r3, #-4067]	; 0xfe3
 FIOCLR = (0xFFFF <<NT35510_DT);
     ca4:	e503cfe3 	str	ip, [r3, #-4067]	; 0xfe3
 FIOSET = (cmd    <<NT35510_DT);
     ca8:	e5030fe7 	str	r0, [r3, #-4071]	; 0xfe7
 WR_OFF;
     cac:	e5032fe3 	str	r2, [r3, #-4067]	; 0xfe3

 WR_ON;
     cb0:	e5032fe7 	str	r2, [r3, #-4071]	; 0xfe7
 RS_ON; // Data
     cb4:	e5034fe7 	str	r4, [r3, #-4071]	; 0xfe7
 FIOCLR = (0xFFFF<<NT35510_DT);
     cb8:	e503cfe3 	str	ip, [r3, #-4067]	; 0xfe3
 FIOSET = (data  <<NT35510_DT);
     cbc:	e5031fe7 	str	r1, [r3, #-4071]	; 0xfe7
 WR_OFF;
     cc0:	e5032fe3 	str	r2, [r3, #-4067]	; 0xfe3

 WR_ON; 
     cc4:	e5032fe7 	str	r2, [r3, #-4071]	; 0xfe7
}
     cc8:	e8bd0010 	pop	{r4}
     ccc:	e12fff1e 	bx	lr
     cd0:	3fffcfff 	.word	0x3fffcfff
     cd4:	ffff0000 	.word	0xffff0000

00000cd8 <TFT_SetArea>:

// ---------------------------------------------------
inline void TFT_SetArea(int x0, int y0, int x1, int y1 )
{
     cd8:	e92d0ff0 	push	{r4, r5, r6, r7, r8, r9, sl, fp}
//inline
void NT35510_Data( unsigned short data)
{
 //RS_ON; // Data
 FIOCLR = (0xFFFF<<NT35510_DT);
 FIOSET = (data  <<NT35510_DT) | NT35510_RS;
     cdc:	e1a08400 	lsl	r8, r0, #8
     ce0:	e1a08828 	lsr	r8, r8, #16
int LENX, LENY;
// ---------------------------------------------------
inline void NT35510_Cmd( unsigned short cmd)
{
 //RS_OFF; // Comando
 FIOCLR = (0xFFFF <<NT35510_DT) | NT35510_RS;
     ce4:	e59fc19c 	ldr	ip, [pc, #412]	; e88 <TFT_SetArea+0x1b0>
     ce8:	e59f519c 	ldr	r5, [pc, #412]	; e8c <TFT_SetArea+0x1b4>
//inline
void NT35510_Data( unsigned short data)
{
 //RS_ON; // Data
 FIOCLR = (0xFFFF<<NT35510_DT);
 FIOSET = (data  <<NT35510_DT) | NT35510_RS;
     cec:	e1a04403 	lsl	r4, r3, #8
     cf0:	e1a08808 	lsl	r8, r8, #16
// ---------------------------------------------------
//inline
void NT35510_Data( unsigned short data)
{
 //RS_ON; // Data
 FIOCLR = (0xFFFF<<NT35510_DT);
     cf4:	e59f6194 	ldr	r6, [pc, #404]	; e90 <TFT_SetArea+0x1b8>
 FIOSET = (data  <<NT35510_DT) | NT35510_RS;
     cf8:	e1a04824 	lsr	r4, r4, #16
     cfc:	e388ba02 	orr	fp, r8, #8192	; 0x2000
     d00:	e1a00800 	lsl	r0, r0, #16
// ---------------------------------------------------
inline void NT35510_Cmd( unsigned short cmd)
{
 //RS_OFF; // Comando
 FIOCLR = (0xFFFF <<NT35510_DT) | NT35510_RS;
 FIOSET = (cmd    <<NT35510_DT);
     d04:	e3a0842a 	mov	r8, #704643072	; 0x2a000000
int LENX, LENY;
// ---------------------------------------------------
inline void NT35510_Cmd( unsigned short cmd)
{
 //RS_OFF; // Comando
 FIOCLR = (0xFFFF <<NT35510_DT) | NT35510_RS;
     d08:	e50c5fe3 	str	r5, [ip, #-4067]	; 0xfe3
//inline
void NT35510_Data( unsigned short data)
{
 //RS_ON; // Data
 FIOCLR = (0xFFFF<<NT35510_DT);
 FIOSET = (data  <<NT35510_DT) | NT35510_RS;
     d0c:	e1a07402 	lsl	r7, r2, #8
// ---------------------------------------------------
inline void NT35510_Cmd( unsigned short cmd)
{
 //RS_OFF; // Comando
 FIOCLR = (0xFFFF <<NT35510_DT) | NT35510_RS;
 FIOSET = (cmd    <<NT35510_DT);
     d10:	e50c8fe7 	str	r8, [ip, #-4071]	; 0xfe7
//inline
void NT35510_Data( unsigned short data)
{
 //RS_ON; // Data
 FIOCLR = (0xFFFF<<NT35510_DT);
 FIOSET = (data  <<NT35510_DT) | NT35510_RS;
     d14:	e1a09804 	lsl	r9, r4, #16
     d18:	e3800a02 	orr	r0, r0, #8192	; 0x2000
inline void NT35510_Cmd( unsigned short cmd)
{
 //RS_OFF; // Comando
 FIOCLR = (0xFFFF <<NT35510_DT) | NT35510_RS;
 FIOSET = (cmd    <<NT35510_DT);
 WR_OFF;
     d1c:	e3a04b02 	mov	r4, #2048	; 0x800
// ---------------------------------------------------
inline void NT35510_Cmd( unsigned short cmd)
{
 //RS_OFF; // Comando
 FIOCLR = (0xFFFF <<NT35510_DT) | NT35510_RS;
 FIOSET = (cmd    <<NT35510_DT);
     d20:	e2888801 	add	r8, r8, #65536	; 0x10000
 WR_OFF;
     d24:	e50c4fe3 	str	r4, [ip, #-4067]	; 0xfe3
//inline
void NT35510_Data( unsigned short data)
{
 //RS_ON; // Data
 FIOCLR = (0xFFFF<<NT35510_DT);
 FIOSET = (data  <<NT35510_DT) | NT35510_RS;
     d28:	e1a07827 	lsr	r7, r7, #16
 //RS_OFF; // Comando
 FIOCLR = (0xFFFF <<NT35510_DT) | NT35510_RS;
 FIOSET = (cmd    <<NT35510_DT);
 WR_OFF;

 WR_ON;
     d2c:	e50c4fe7 	str	r4, [ip, #-4071]	; 0xfe7
// ---------------------------------------------------
//inline
void NT35510_Data( unsigned short data)
{
 //RS_ON; // Data
 FIOCLR = (0xFFFF<<NT35510_DT);
     d30:	e50c6fe3 	str	r6, [ip, #-4067]	; 0xfe3
 FIOSET = (data  <<NT35510_DT) | NT35510_RS;
     d34:	e50cbfe7 	str	fp, [ip, #-4071]	; 0xfe7
 WR_OFF;
     d38:	e50c4fe3 	str	r4, [ip, #-4067]	; 0xfe3

 WR_ON; 
     d3c:	e50c4fe7 	str	r4, [ip, #-4071]	; 0xfe7
int LENX, LENY;
// ---------------------------------------------------
inline void NT35510_Cmd( unsigned short cmd)
{
 //RS_OFF; // Comando
 FIOCLR = (0xFFFF <<NT35510_DT) | NT35510_RS;
     d40:	e50c5fe3 	str	r5, [ip, #-4067]	; 0xfe3
 FIOSET = (cmd    <<NT35510_DT);
     d44:	e50c8fe7 	str	r8, [ip, #-4071]	; 0xfe7
 WR_OFF;
     d48:	e50c4fe3 	str	r4, [ip, #-4067]	; 0xfe3

 WR_ON;
     d4c:	e50c4fe7 	str	r4, [ip, #-4071]	; 0xfe7
// ---------------------------------------------------
//inline
void NT35510_Data( unsigned short data)
{
 //RS_ON; // Data
 FIOCLR = (0xFFFF<<NT35510_DT);
     d50:	e50c6fe3 	str	r6, [ip, #-4067]	; 0xfe3
 FIOSET = (data  <<NT35510_DT) | NT35510_RS;
     d54:	e50c0fe7 	str	r0, [ip, #-4071]	; 0xfe7
// ---------------------------------------------------
inline void NT35510_Cmd( unsigned short cmd)
{
 //RS_OFF; // Comando
 FIOCLR = (0xFFFF <<NT35510_DT) | NT35510_RS;
 FIOSET = (cmd    <<NT35510_DT);
     d58:	e59f0134 	ldr	r0, [pc, #308]	; e94 <TFT_SetArea+0x1bc>
//inline
void NT35510_Data( unsigned short data)
{
 //RS_ON; // Data
 FIOCLR = (0xFFFF<<NT35510_DT);
 FIOSET = (data  <<NT35510_DT) | NT35510_RS;
     d5c:	e1a0a401 	lsl	sl, r1, #8
     d60:	e1a07807 	lsl	r7, r7, #16
     d64:	e1a02802 	lsl	r2, r2, #16
 WR_OFF;
     d68:	e50c4fe3 	str	r4, [ip, #-4067]	; 0xfe3
//inline
void NT35510_Data( unsigned short data)
{
 //RS_ON; // Data
 FIOCLR = (0xFFFF<<NT35510_DT);
 FIOSET = (data  <<NT35510_DT) | NT35510_RS;
     d6c:	e3822a02 	orr	r2, r2, #8192	; 0x2000
 WR_OFF;

 WR_ON; 
     d70:	e50c4fe7 	str	r4, [ip, #-4071]	; 0xfe7
//inline
void NT35510_Data( unsigned short data)
{
 //RS_ON; // Data
 FIOCLR = (0xFFFF<<NT35510_DT);
 FIOSET = (data  <<NT35510_DT) | NT35510_RS;
     d74:	e1a0a82a 	lsr	sl, sl, #16
int LENX, LENY;
// ---------------------------------------------------
inline void NT35510_Cmd( unsigned short cmd)
{
 //RS_OFF; // Comando
 FIOCLR = (0xFFFF <<NT35510_DT) | NT35510_RS;
     d78:	e50c5fe3 	str	r5, [ip, #-4067]	; 0xfe3
//inline
void NT35510_Data( unsigned short data)
{
 //RS_ON; // Data
 FIOCLR = (0xFFFF<<NT35510_DT);
 FIOSET = (data  <<NT35510_DT) | NT35510_RS;
     d7c:	e3877a02 	orr	r7, r7, #8192	; 0x2000
// ---------------------------------------------------
inline void NT35510_Cmd( unsigned short cmd)
{
 //RS_OFF; // Comando
 FIOCLR = (0xFFFF <<NT35510_DT) | NT35510_RS;
 FIOSET = (cmd    <<NT35510_DT);
     d80:	e50c0fe7 	str	r0, [ip, #-4071]	; 0xfe7
     d84:	e2800801 	add	r0, r0, #65536	; 0x10000
 WR_OFF;
     d88:	e50c4fe3 	str	r4, [ip, #-4067]	; 0xfe3
//inline
void NT35510_Data( unsigned short data)
{
 //RS_ON; // Data
 FIOCLR = (0xFFFF<<NT35510_DT);
 FIOSET = (data  <<NT35510_DT) | NT35510_RS;
     d8c:	e1a0a80a 	lsl	sl, sl, #16
 //RS_OFF; // Comando
 FIOCLR = (0xFFFF <<NT35510_DT) | NT35510_RS;
 FIOSET = (cmd    <<NT35510_DT);
 WR_OFF;

 WR_ON;
     d90:	e50c4fe7 	str	r4, [ip, #-4071]	; 0xfe7
// ---------------------------------------------------
//inline
void NT35510_Data( unsigned short data)
{
 //RS_ON; // Data
 FIOCLR = (0xFFFF<<NT35510_DT);
     d94:	e50c6fe3 	str	r6, [ip, #-4067]	; 0xfe3
 FIOSET = (data  <<NT35510_DT) | NT35510_RS;
     d98:	e50c7fe7 	str	r7, [ip, #-4071]	; 0xfe7
 WR_OFF;
     d9c:	e50c4fe3 	str	r4, [ip, #-4067]	; 0xfe3

 WR_ON; 
     da0:	e50c4fe7 	str	r4, [ip, #-4071]	; 0xfe7
int LENX, LENY;
// ---------------------------------------------------
inline void NT35510_Cmd( unsigned short cmd)
{
 //RS_OFF; // Comando
 FIOCLR = (0xFFFF <<NT35510_DT) | NT35510_RS;
     da4:	e50c5fe3 	str	r5, [ip, #-4067]	; 0xfe3
 FIOSET = (cmd    <<NT35510_DT);
     da8:	e50c0fe7 	str	r0, [ip, #-4071]	; 0xfe7
 WR_OFF;
     dac:	e50c4fe3 	str	r4, [ip, #-4067]	; 0xfe3

 WR_ON;
     db0:	e50c4fe7 	str	r4, [ip, #-4071]	; 0xfe7
// ---------------------------------------------------
//inline
void NT35510_Data( unsigned short data)
{
 //RS_ON; // Data
 FIOCLR = (0xFFFF<<NT35510_DT);
     db4:	e50c6fe3 	str	r6, [ip, #-4067]	; 0xfe3
 FIOSET = (data  <<NT35510_DT) | NT35510_RS;
     db8:	e50c2fe7 	str	r2, [ip, #-4071]	; 0xfe7
// ---------------------------------------------------
inline void NT35510_Cmd( unsigned short cmd)
{
 //RS_OFF; // Comando
 FIOCLR = (0xFFFF <<NT35510_DT) | NT35510_RS;
 FIOSET = (cmd    <<NT35510_DT);
     dbc:	e3a0242b 	mov	r2, #721420288	; 0x2b000000
void NT35510_Data( unsigned short data)
{
 //RS_ON; // Data
 FIOCLR = (0xFFFF<<NT35510_DT);
 FIOSET = (data  <<NT35510_DT) | NT35510_RS;
 WR_OFF;
     dc0:	e50c4fe3 	str	r4, [ip, #-4067]	; 0xfe3
//inline
void NT35510_Data( unsigned short data)
{
 //RS_ON; // Data
 FIOCLR = (0xFFFF<<NT35510_DT);
 FIOSET = (data  <<NT35510_DT) | NT35510_RS;
     dc4:	e1a01801 	lsl	r1, r1, #16
     dc8:	e38aaa02 	orr	sl, sl, #8192	; 0x2000
 WR_OFF;

 WR_ON; 
     dcc:	e50c4fe7 	str	r4, [ip, #-4071]	; 0xfe7
int LENX, LENY;
// ---------------------------------------------------
inline void NT35510_Cmd( unsigned short cmd)
{
 //RS_OFF; // Comando
 FIOCLR = (0xFFFF <<NT35510_DT) | NT35510_RS;
     dd0:	e50c5fe3 	str	r5, [ip, #-4067]	; 0xfe3
 FIOSET = (cmd    <<NT35510_DT);
     dd4:	e50c2fe7 	str	r2, [ip, #-4071]	; 0xfe7
     dd8:	e2822801 	add	r2, r2, #65536	; 0x10000
 WR_OFF;
     ddc:	e50c4fe3 	str	r4, [ip, #-4067]	; 0xfe3
//inline
void NT35510_Data( unsigned short data)
{
 //RS_ON; // Data
 FIOCLR = (0xFFFF<<NT35510_DT);
 FIOSET = (data  <<NT35510_DT) | NT35510_RS;
     de0:	e1a03803 	lsl	r3, r3, #16
 //RS_OFF; // Comando
 FIOCLR = (0xFFFF <<NT35510_DT) | NT35510_RS;
 FIOSET = (cmd    <<NT35510_DT);
 WR_OFF;

 WR_ON;
     de4:	e50c4fe7 	str	r4, [ip, #-4071]	; 0xfe7
//inline
void NT35510_Data( unsigned short data)
{
 //RS_ON; // Data
 FIOCLR = (0xFFFF<<NT35510_DT);
 FIOSET = (data  <<NT35510_DT) | NT35510_RS;
     de8:	e3811a02 	orr	r1, r1, #8192	; 0x2000
// ---------------------------------------------------
//inline
void NT35510_Data( unsigned short data)
{
 //RS_ON; // Data
 FIOCLR = (0xFFFF<<NT35510_DT);
     dec:	e50c6fe3 	str	r6, [ip, #-4067]	; 0xfe3
 FIOSET = (data  <<NT35510_DT) | NT35510_RS;
     df0:	e50cafe7 	str	sl, [ip, #-4071]	; 0xfe7
 WR_OFF;
     df4:	e50c4fe3 	str	r4, [ip, #-4067]	; 0xfe3

 WR_ON; 
     df8:	e50c4fe7 	str	r4, [ip, #-4071]	; 0xfe7
int LENX, LENY;
// ---------------------------------------------------
inline void NT35510_Cmd( unsigned short cmd)
{
 //RS_OFF; // Comando
 FIOCLR = (0xFFFF <<NT35510_DT) | NT35510_RS;
     dfc:	e50c5fe3 	str	r5, [ip, #-4067]	; 0xfe3
 FIOSET = (cmd    <<NT35510_DT);
     e00:	e50c2fe7 	str	r2, [ip, #-4071]	; 0xfe7
     e04:	e2822801 	add	r2, r2, #65536	; 0x10000
 WR_OFF;
     e08:	e50c4fe3 	str	r4, [ip, #-4067]	; 0xfe3
//inline
void NT35510_Data( unsigned short data)
{
 //RS_ON; // Data
 FIOCLR = (0xFFFF<<NT35510_DT);
 FIOSET = (data  <<NT35510_DT) | NT35510_RS;
     e0c:	e3833a02 	orr	r3, r3, #8192	; 0x2000
 //RS_OFF; // Comando
 FIOCLR = (0xFFFF <<NT35510_DT) | NT35510_RS;
 FIOSET = (cmd    <<NT35510_DT);
 WR_OFF;

 WR_ON;
     e10:	e50c4fe7 	str	r4, [ip, #-4071]	; 0xfe7
//inline
void NT35510_Data( unsigned short data)
{
 //RS_ON; // Data
 FIOCLR = (0xFFFF<<NT35510_DT);
 FIOSET = (data  <<NT35510_DT) | NT35510_RS;
     e14:	e3899a02 	orr	r9, r9, #8192	; 0x2000
// ---------------------------------------------------
//inline
void NT35510_Data( unsigned short data)
{
 //RS_ON; // Data
 FIOCLR = (0xFFFF<<NT35510_DT);
     e18:	e50c6fe3 	str	r6, [ip, #-4067]	; 0xfe3
 FIOSET = (data  <<NT35510_DT) | NT35510_RS;
     e1c:	e50c1fe7 	str	r1, [ip, #-4071]	; 0xfe7
 WR_OFF;
     e20:	e50c4fe3 	str	r4, [ip, #-4067]	; 0xfe3

 WR_ON; 
     e24:	e50c4fe7 	str	r4, [ip, #-4071]	; 0xfe7
int LENX, LENY;
// ---------------------------------------------------
inline void NT35510_Cmd( unsigned short cmd)
{
 //RS_OFF; // Comando
 FIOCLR = (0xFFFF <<NT35510_DT) | NT35510_RS;
     e28:	e50c5fe3 	str	r5, [ip, #-4067]	; 0xfe3
 FIOSET = (cmd    <<NT35510_DT);
     e2c:	e50c2fe7 	str	r2, [ip, #-4071]	; 0xfe7
     e30:	e2822801 	add	r2, r2, #65536	; 0x10000
 WR_OFF;
     e34:	e50c4fe3 	str	r4, [ip, #-4067]	; 0xfe3

 WR_ON;
     e38:	e50c4fe7 	str	r4, [ip, #-4071]	; 0xfe7
// ---------------------------------------------------
//inline
void NT35510_Data( unsigned short data)
{
 //RS_ON; // Data
 FIOCLR = (0xFFFF<<NT35510_DT);
     e3c:	e50c6fe3 	str	r6, [ip, #-4067]	; 0xfe3
 FIOSET = (data  <<NT35510_DT) | NT35510_RS;
     e40:	e50c9fe7 	str	r9, [ip, #-4071]	; 0xfe7
 WR_OFF;
     e44:	e50c4fe3 	str	r4, [ip, #-4067]	; 0xfe3

 WR_ON; 
     e48:	e50c4fe7 	str	r4, [ip, #-4071]	; 0xfe7
int LENX, LENY;
// ---------------------------------------------------
inline void NT35510_Cmd( unsigned short cmd)
{
 //RS_OFF; // Comando
 FIOCLR = (0xFFFF <<NT35510_DT) | NT35510_RS;
     e4c:	e50c5fe3 	str	r5, [ip, #-4067]	; 0xfe3
 FIOSET = (cmd    <<NT35510_DT);
     e50:	e50c2fe7 	str	r2, [ip, #-4071]	; 0xfe7
 WR_OFF;
     e54:	e50c4fe3 	str	r4, [ip, #-4067]	; 0xfe3

 WR_ON;
     e58:	e50c4fe7 	str	r4, [ip, #-4071]	; 0xfe7
// ---------------------------------------------------
//inline
void NT35510_Data( unsigned short data)
{
 //RS_ON; // Data
 FIOCLR = (0xFFFF<<NT35510_DT);
     e5c:	e50c6fe3 	str	r6, [ip, #-4067]	; 0xfe3
 FIOSET = (data  <<NT35510_DT) | NT35510_RS;
     e60:	e50c3fe7 	str	r3, [ip, #-4071]	; 0xfe7
// ---------------------------------------------------
inline void NT35510_Cmd( unsigned short cmd)
{
 //RS_OFF; // Comando
 FIOCLR = (0xFFFF <<NT35510_DT) | NT35510_RS;
 FIOSET = (cmd    <<NT35510_DT);
     e64:	e3a0330b 	mov	r3, #738197504	; 0x2c000000
void NT35510_Data( unsigned short data)
{
 //RS_ON; // Data
 FIOCLR = (0xFFFF<<NT35510_DT);
 FIOSET = (data  <<NT35510_DT) | NT35510_RS;
 WR_OFF;
     e68:	e50c4fe3 	str	r4, [ip, #-4067]	; 0xfe3

 WR_ON; 
     e6c:	e50c4fe7 	str	r4, [ip, #-4071]	; 0xfe7
int LENX, LENY;
// ---------------------------------------------------
inline void NT35510_Cmd( unsigned short cmd)
{
 //RS_OFF; // Comando
 FIOCLR = (0xFFFF <<NT35510_DT) | NT35510_RS;
     e70:	e50c5fe3 	str	r5, [ip, #-4067]	; 0xfe3
 FIOSET = (cmd    <<NT35510_DT);
     e74:	e50c3fe7 	str	r3, [ip, #-4071]	; 0xfe7
 WR_OFF;
     e78:	e50c4fe3 	str	r4, [ip, #-4067]	; 0xfe3

 WR_ON;
     e7c:	e50c4fe7 	str	r4, [ip, #-4071]	; 0xfe7
 NT35510_Cmd( CMD_SET_PAGE   );   NT35510_Data( y0>>8 ); // Start Row    High byte
 NT35510_Cmd( CMD_SET_PAGE+1 );   NT35510_Data( y0    ); // Start Row    Low  byte
 NT35510_Cmd( CMD_SET_PAGE+2 );   NT35510_Data( y1>>8 ); // End   Row    High byte
 NT35510_Cmd( CMD_SET_PAGE+3 );   NT35510_Data( y1    ); // End   Row    Low  byte
 NT35510_Cmd( CMD_WR_MEMSTART );
}
     e80:	e8bd0ff0 	pop	{r4, r5, r6, r7, r8, r9, sl, fp}
     e84:	e12fff1e 	bx	lr
     e88:	3fffcfff 	.word	0x3fffcfff
     e8c:	ffff2000 	.word	0xffff2000
     e90:	ffff0000 	.word	0xffff0000
     e94:	2a020000 	.word	0x2a020000

00000e98 <TFT_SetAreaR>:
// ---------------------------------------------------
inline void TFT_SetAreaR(int x0, int y0, int x1, int y1 )
{
     e98:	e92d0ff0 	push	{r4, r5, r6, r7, r8, r9, sl, fp}
//inline
void NT35510_Data( unsigned short data)
{
 //RS_ON; // Data
 FIOCLR = (0xFFFF<<NT35510_DT);
 FIOSET = (data  <<NT35510_DT) | NT35510_RS;
     e9c:	e1a08400 	lsl	r8, r0, #8
     ea0:	e1a08828 	lsr	r8, r8, #16
int LENX, LENY;
// ---------------------------------------------------
inline void NT35510_Cmd( unsigned short cmd)
{
 //RS_OFF; // Comando
 FIOCLR = (0xFFFF <<NT35510_DT) | NT35510_RS;
     ea4:	e59fc19c 	ldr	ip, [pc, #412]	; 1048 <TFT_SetAreaR+0x1b0>
     ea8:	e59f519c 	ldr	r5, [pc, #412]	; 104c <TFT_SetAreaR+0x1b4>
//inline
void NT35510_Data( unsigned short data)
{
 //RS_ON; // Data
 FIOCLR = (0xFFFF<<NT35510_DT);
 FIOSET = (data  <<NT35510_DT) | NT35510_RS;
     eac:	e1a04403 	lsl	r4, r3, #8
     eb0:	e1a08808 	lsl	r8, r8, #16
// ---------------------------------------------------
//inline
void NT35510_Data( unsigned short data)
{
 //RS_ON; // Data
 FIOCLR = (0xFFFF<<NT35510_DT);
     eb4:	e59f6194 	ldr	r6, [pc, #404]	; 1050 <TFT_SetAreaR+0x1b8>
 FIOSET = (data  <<NT35510_DT) | NT35510_RS;
     eb8:	e1a04824 	lsr	r4, r4, #16
     ebc:	e388ba02 	orr	fp, r8, #8192	; 0x2000
     ec0:	e1a00800 	lsl	r0, r0, #16
// ---------------------------------------------------
inline void NT35510_Cmd( unsigned short cmd)
{
 //RS_OFF; // Comando
 FIOCLR = (0xFFFF <<NT35510_DT) | NT35510_RS;
 FIOSET = (cmd    <<NT35510_DT);
     ec4:	e3a0842a 	mov	r8, #704643072	; 0x2a000000
int LENX, LENY;
// ---------------------------------------------------
inline void NT35510_Cmd( unsigned short cmd)
{
 //RS_OFF; // Comando
 FIOCLR = (0xFFFF <<NT35510_DT) | NT35510_RS;
     ec8:	e50c5fe3 	str	r5, [ip, #-4067]	; 0xfe3
//inline
void NT35510_Data( unsigned short data)
{
 //RS_ON; // Data
 FIOCLR = (0xFFFF<<NT35510_DT);
 FIOSET = (data  <<NT35510_DT) | NT35510_RS;
     ecc:	e1a07402 	lsl	r7, r2, #8
// ---------------------------------------------------
inline void NT35510_Cmd( unsigned short cmd)
{
 //RS_OFF; // Comando
 FIOCLR = (0xFFFF <<NT35510_DT) | NT35510_RS;
 FIOSET = (cmd    <<NT35510_DT);
     ed0:	e50c8fe7 	str	r8, [ip, #-4071]	; 0xfe7
//inline
void NT35510_Data( unsigned short data)
{
 //RS_ON; // Data
 FIOCLR = (0xFFFF<<NT35510_DT);
 FIOSET = (data  <<NT35510_DT) | NT35510_RS;
     ed4:	e1a09804 	lsl	r9, r4, #16
     ed8:	e3800a02 	orr	r0, r0, #8192	; 0x2000
inline void NT35510_Cmd( unsigned short cmd)
{
 //RS_OFF; // Comando
 FIOCLR = (0xFFFF <<NT35510_DT) | NT35510_RS;
 FIOSET = (cmd    <<NT35510_DT);
 WR_OFF;
     edc:	e3a04b02 	mov	r4, #2048	; 0x800
// ---------------------------------------------------
inline void NT35510_Cmd( unsigned short cmd)
{
 //RS_OFF; // Comando
 FIOCLR = (0xFFFF <<NT35510_DT) | NT35510_RS;
 FIOSET = (cmd    <<NT35510_DT);
     ee0:	e2888801 	add	r8, r8, #65536	; 0x10000
 WR_OFF;
     ee4:	e50c4fe3 	str	r4, [ip, #-4067]	; 0xfe3
//inline
void NT35510_Data( unsigned short data)
{
 //RS_ON; // Data
 FIOCLR = (0xFFFF<<NT35510_DT);
 FIOSET = (data  <<NT35510_DT) | NT35510_RS;
     ee8:	e1a07827 	lsr	r7, r7, #16
 //RS_OFF; // Comando
 FIOCLR = (0xFFFF <<NT35510_DT) | NT35510_RS;
 FIOSET = (cmd    <<NT35510_DT);
 WR_OFF;

 WR_ON;
     eec:	e50c4fe7 	str	r4, [ip, #-4071]	; 0xfe7
// ---------------------------------------------------
//inline
void NT35510_Data( unsigned short data)
{
 //RS_ON; // Data
 FIOCLR = (0xFFFF<<NT35510_DT);
     ef0:	e50c6fe3 	str	r6, [ip, #-4067]	; 0xfe3
 FIOSET = (data  <<NT35510_DT) | NT35510_RS;
     ef4:	e50cbfe7 	str	fp, [ip, #-4071]	; 0xfe7
 WR_OFF;
     ef8:	e50c4fe3 	str	r4, [ip, #-4067]	; 0xfe3

 WR_ON; 
     efc:	e50c4fe7 	str	r4, [ip, #-4071]	; 0xfe7
int LENX, LENY;
// ---------------------------------------------------
inline void NT35510_Cmd( unsigned short cmd)
{
 //RS_OFF; // Comando
 FIOCLR = (0xFFFF <<NT35510_DT) | NT35510_RS;
     f00:	e50c5fe3 	str	r5, [ip, #-4067]	; 0xfe3
 FIOSET = (cmd    <<NT35510_DT);
     f04:	e50c8fe7 	str	r8, [ip, #-4071]	; 0xfe7
 WR_OFF;
     f08:	e50c4fe3 	str	r4, [ip, #-4067]	; 0xfe3

 WR_ON;
     f0c:	e50c4fe7 	str	r4, [ip, #-4071]	; 0xfe7
// ---------------------------------------------------
//inline
void NT35510_Data( unsigned short data)
{
 //RS_ON; // Data
 FIOCLR = (0xFFFF<<NT35510_DT);
     f10:	e50c6fe3 	str	r6, [ip, #-4067]	; 0xfe3
 FIOSET = (data  <<NT35510_DT) | NT35510_RS;
     f14:	e50c0fe7 	str	r0, [ip, #-4071]	; 0xfe7
// ---------------------------------------------------
inline void NT35510_Cmd( unsigned short cmd)
{
 //RS_OFF; // Comando
 FIOCLR = (0xFFFF <<NT35510_DT) | NT35510_RS;
 FIOSET = (cmd    <<NT35510_DT);
     f18:	e59f0134 	ldr	r0, [pc, #308]	; 1054 <TFT_SetAreaR+0x1bc>
//inline
void NT35510_Data( unsigned short data)
{
 //RS_ON; // Data
 FIOCLR = (0xFFFF<<NT35510_DT);
 FIOSET = (data  <<NT35510_DT) | NT35510_RS;
     f1c:	e1a0a401 	lsl	sl, r1, #8
     f20:	e1a07807 	lsl	r7, r7, #16
     f24:	e1a02802 	lsl	r2, r2, #16
 WR_OFF;
     f28:	e50c4fe3 	str	r4, [ip, #-4067]	; 0xfe3
//inline
void NT35510_Data( unsigned short data)
{
 //RS_ON; // Data
 FIOCLR = (0xFFFF<<NT35510_DT);
 FIOSET = (data  <<NT35510_DT) | NT35510_RS;
     f2c:	e3822a02 	orr	r2, r2, #8192	; 0x2000
 WR_OFF;

 WR_ON; 
     f30:	e50c4fe7 	str	r4, [ip, #-4071]	; 0xfe7
//inline
void NT35510_Data( unsigned short data)
{
 //RS_ON; // Data
 FIOCLR = (0xFFFF<<NT35510_DT);
 FIOSET = (data  <<NT35510_DT) | NT35510_RS;
     f34:	e1a0a82a 	lsr	sl, sl, #16
int LENX, LENY;
// ---------------------------------------------------
inline void NT35510_Cmd( unsigned short cmd)
{
 //RS_OFF; // Comando
 FIOCLR = (0xFFFF <<NT35510_DT) | NT35510_RS;
     f38:	e50c5fe3 	str	r5, [ip, #-4067]	; 0xfe3
//inline
void NT35510_Data( unsigned short data)
{
 //RS_ON; // Data
 FIOCLR = (0xFFFF<<NT35510_DT);
 FIOSET = (data  <<NT35510_DT) | NT35510_RS;
     f3c:	e3877a02 	orr	r7, r7, #8192	; 0x2000
// ---------------------------------------------------
inline void NT35510_Cmd( unsigned short cmd)
{
 //RS_OFF; // Comando
 FIOCLR = (0xFFFF <<NT35510_DT) | NT35510_RS;
 FIOSET = (cmd    <<NT35510_DT);
     f40:	e50c0fe7 	str	r0, [ip, #-4071]	; 0xfe7
     f44:	e2800801 	add	r0, r0, #65536	; 0x10000
 WR_OFF;
     f48:	e50c4fe3 	str	r4, [ip, #-4067]	; 0xfe3
//inline
void NT35510_Data( unsigned short data)
{
 //RS_ON; // Data
 FIOCLR = (0xFFFF<<NT35510_DT);
 FIOSET = (data  <<NT35510_DT) | NT35510_RS;
     f4c:	e1a0a80a 	lsl	sl, sl, #16
 //RS_OFF; // Comando
 FIOCLR = (0xFFFF <<NT35510_DT) | NT35510_RS;
 FIOSET = (cmd    <<NT35510_DT);
 WR_OFF;

 WR_ON;
     f50:	e50c4fe7 	str	r4, [ip, #-4071]	; 0xfe7
// ---------------------------------------------------
//inline
void NT35510_Data( unsigned short data)
{
 //RS_ON; // Data
 FIOCLR = (0xFFFF<<NT35510_DT);
     f54:	e50c6fe3 	str	r6, [ip, #-4067]	; 0xfe3
 FIOSET = (data  <<NT35510_DT) | NT35510_RS;
     f58:	e50c7fe7 	str	r7, [ip, #-4071]	; 0xfe7
 WR_OFF;
     f5c:	e50c4fe3 	str	r4, [ip, #-4067]	; 0xfe3

 WR_ON; 
     f60:	e50c4fe7 	str	r4, [ip, #-4071]	; 0xfe7
int LENX, LENY;
// ---------------------------------------------------
inline void NT35510_Cmd( unsigned short cmd)
{
 //RS_OFF; // Comando
 FIOCLR = (0xFFFF <<NT35510_DT) | NT35510_RS;
     f64:	e50c5fe3 	str	r5, [ip, #-4067]	; 0xfe3
 FIOSET = (cmd    <<NT35510_DT);
     f68:	e50c0fe7 	str	r0, [ip, #-4071]	; 0xfe7
 WR_OFF;
     f6c:	e50c4fe3 	str	r4, [ip, #-4067]	; 0xfe3

 WR_ON;
     f70:	e50c4fe7 	str	r4, [ip, #-4071]	; 0xfe7
// ---------------------------------------------------
//inline
void NT35510_Data( unsigned short data)
{
 //RS_ON; // Data
 FIOCLR = (0xFFFF<<NT35510_DT);
     f74:	e50c6fe3 	str	r6, [ip, #-4067]	; 0xfe3
 FIOSET = (data  <<NT35510_DT) | NT35510_RS;
     f78:	e50c2fe7 	str	r2, [ip, #-4071]	; 0xfe7
// ---------------------------------------------------
inline void NT35510_Cmd( unsigned short cmd)
{
 //RS_OFF; // Comando
 FIOCLR = (0xFFFF <<NT35510_DT) | NT35510_RS;
 FIOSET = (cmd    <<NT35510_DT);
     f7c:	e3a0242b 	mov	r2, #721420288	; 0x2b000000
void NT35510_Data( unsigned short data)
{
 //RS_ON; // Data
 FIOCLR = (0xFFFF<<NT35510_DT);
 FIOSET = (data  <<NT35510_DT) | NT35510_RS;
 WR_OFF;
     f80:	e50c4fe3 	str	r4, [ip, #-4067]	; 0xfe3
//inline
void NT35510_Data( unsigned short data)
{
 //RS_ON; // Data
 FIOCLR = (0xFFFF<<NT35510_DT);
 FIOSET = (data  <<NT35510_DT) | NT35510_RS;
     f84:	e1a01801 	lsl	r1, r1, #16
     f88:	e38aaa02 	orr	sl, sl, #8192	; 0x2000
 WR_OFF;

 WR_ON; 
     f8c:	e50c4fe7 	str	r4, [ip, #-4071]	; 0xfe7
int LENX, LENY;
// ---------------------------------------------------
inline void NT35510_Cmd( unsigned short cmd)
{
 //RS_OFF; // Comando
 FIOCLR = (0xFFFF <<NT35510_DT) | NT35510_RS;
     f90:	e50c5fe3 	str	r5, [ip, #-4067]	; 0xfe3
 FIOSET = (cmd    <<NT35510_DT);
     f94:	e50c2fe7 	str	r2, [ip, #-4071]	; 0xfe7
     f98:	e2822801 	add	r2, r2, #65536	; 0x10000
 WR_OFF;
     f9c:	e50c4fe3 	str	r4, [ip, #-4067]	; 0xfe3
//inline
void NT35510_Data( unsigned short data)
{
 //RS_ON; // Data
 FIOCLR = (0xFFFF<<NT35510_DT);
 FIOSET = (data  <<NT35510_DT) | NT35510_RS;
     fa0:	e1a03803 	lsl	r3, r3, #16
 //RS_OFF; // Comando
 FIOCLR = (0xFFFF <<NT35510_DT) | NT35510_RS;
 FIOSET = (cmd    <<NT35510_DT);
 WR_OFF;

 WR_ON;
     fa4:	e50c4fe7 	str	r4, [ip, #-4071]	; 0xfe7
//inline
void NT35510_Data( unsigned short data)
{
 //RS_ON; // Data
 FIOCLR = (0xFFFF<<NT35510_DT);
 FIOSET = (data  <<NT35510_DT) | NT35510_RS;
     fa8:	e3811a02 	orr	r1, r1, #8192	; 0x2000
// ---------------------------------------------------
//inline
void NT35510_Data( unsigned short data)
{
 //RS_ON; // Data
 FIOCLR = (0xFFFF<<NT35510_DT);
     fac:	e50c6fe3 	str	r6, [ip, #-4067]	; 0xfe3
 FIOSET = (data  <<NT35510_DT) | NT35510_RS;
     fb0:	e50cafe7 	str	sl, [ip, #-4071]	; 0xfe7
 WR_OFF;
     fb4:	e50c4fe3 	str	r4, [ip, #-4067]	; 0xfe3

 WR_ON; 
     fb8:	e50c4fe7 	str	r4, [ip, #-4071]	; 0xfe7
int LENX, LENY;
// ---------------------------------------------------
inline void NT35510_Cmd( unsigned short cmd)
{
 //RS_OFF; // Comando
 FIOCLR = (0xFFFF <<NT35510_DT) | NT35510_RS;
     fbc:	e50c5fe3 	str	r5, [ip, #-4067]	; 0xfe3
 FIOSET = (cmd    <<NT35510_DT);
     fc0:	e50c2fe7 	str	r2, [ip, #-4071]	; 0xfe7
     fc4:	e2822801 	add	r2, r2, #65536	; 0x10000
 WR_OFF;
     fc8:	e50c4fe3 	str	r4, [ip, #-4067]	; 0xfe3
//inline
void NT35510_Data( unsigned short data)
{
 //RS_ON; // Data
 FIOCLR = (0xFFFF<<NT35510_DT);
 FIOSET = (data  <<NT35510_DT) | NT35510_RS;
     fcc:	e3833a02 	orr	r3, r3, #8192	; 0x2000
 //RS_OFF; // Comando
 FIOCLR = (0xFFFF <<NT35510_DT) | NT35510_RS;
 FIOSET = (cmd    <<NT35510_DT);
 WR_OFF;

 WR_ON;
     fd0:	e50c4fe7 	str	r4, [ip, #-4071]	; 0xfe7
//inline
void NT35510_Data( unsigned short data)
{
 //RS_ON; // Data
 FIOCLR = (0xFFFF<<NT35510_DT);
 FIOSET = (data  <<NT35510_DT) | NT35510_RS;
     fd4:	e3899a02 	orr	r9, r9, #8192	; 0x2000
// ---------------------------------------------------
//inline
void NT35510_Data( unsigned short data)
{
 //RS_ON; // Data
 FIOCLR = (0xFFFF<<NT35510_DT);
     fd8:	e50c6fe3 	str	r6, [ip, #-4067]	; 0xfe3
 FIOSET = (data  <<NT35510_DT) | NT35510_RS;
     fdc:	e50c1fe7 	str	r1, [ip, #-4071]	; 0xfe7
 WR_OFF;
     fe0:	e50c4fe3 	str	r4, [ip, #-4067]	; 0xfe3

 WR_ON; 
     fe4:	e50c4fe7 	str	r4, [ip, #-4071]	; 0xfe7
int LENX, LENY;
// ---------------------------------------------------
inline void NT35510_Cmd( unsigned short cmd)
{
 //RS_OFF; // Comando
 FIOCLR = (0xFFFF <<NT35510_DT) | NT35510_RS;
     fe8:	e50c5fe3 	str	r5, [ip, #-4067]	; 0xfe3
 FIOSET = (cmd    <<NT35510_DT);
     fec:	e50c2fe7 	str	r2, [ip, #-4071]	; 0xfe7
     ff0:	e2822801 	add	r2, r2, #65536	; 0x10000
 WR_OFF;
     ff4:	e50c4fe3 	str	r4, [ip, #-4067]	; 0xfe3

 WR_ON;
     ff8:	e50c4fe7 	str	r4, [ip, #-4071]	; 0xfe7
// ---------------------------------------------------
//inline
void NT35510_Data( unsigned short data)
{
 //RS_ON; // Data
 FIOCLR = (0xFFFF<<NT35510_DT);
     ffc:	e50c6fe3 	str	r6, [ip, #-4067]	; 0xfe3
 FIOSET = (data  <<NT35510_DT) | NT35510_RS;
    1000:	e50c9fe7 	str	r9, [ip, #-4071]	; 0xfe7
 WR_OFF;
    1004:	e50c4fe3 	str	r4, [ip, #-4067]	; 0xfe3

 WR_ON; 
    1008:	e50c4fe7 	str	r4, [ip, #-4071]	; 0xfe7
int LENX, LENY;
// ---------------------------------------------------
inline void NT35510_Cmd( unsigned short cmd)
{
 //RS_OFF; // Comando
 FIOCLR = (0xFFFF <<NT35510_DT) | NT35510_RS;
    100c:	e50c5fe3 	str	r5, [ip, #-4067]	; 0xfe3
 FIOSET = (cmd    <<NT35510_DT);
    1010:	e50c2fe7 	str	r2, [ip, #-4071]	; 0xfe7
 WR_OFF;
    1014:	e50c4fe3 	str	r4, [ip, #-4067]	; 0xfe3

 WR_ON;
    1018:	e50c4fe7 	str	r4, [ip, #-4071]	; 0xfe7
// ---------------------------------------------------
//inline
void NT35510_Data( unsigned short data)
{
 //RS_ON; // Data
 FIOCLR = (0xFFFF<<NT35510_DT);
    101c:	e50c6fe3 	str	r6, [ip, #-4067]	; 0xfe3
 FIOSET = (data  <<NT35510_DT) | NT35510_RS;
    1020:	e50c3fe7 	str	r3, [ip, #-4071]	; 0xfe7
// ---------------------------------------------------
inline void NT35510_Cmd( unsigned short cmd)
{
 //RS_OFF; // Comando
 FIOCLR = (0xFFFF <<NT35510_DT) | NT35510_RS;
 FIOSET = (cmd    <<NT35510_DT);
    1024:	e3a0342e 	mov	r3, #771751936	; 0x2e000000
void NT35510_Data( unsigned short data)
{
 //RS_ON; // Data
 FIOCLR = (0xFFFF<<NT35510_DT);
 FIOSET = (data  <<NT35510_DT) | NT35510_RS;
 WR_OFF;
    1028:	e50c4fe3 	str	r4, [ip, #-4067]	; 0xfe3

 WR_ON; 
    102c:	e50c4fe7 	str	r4, [ip, #-4071]	; 0xfe7
int LENX, LENY;
// ---------------------------------------------------
inline void NT35510_Cmd( unsigned short cmd)
{
 //RS_OFF; // Comando
 FIOCLR = (0xFFFF <<NT35510_DT) | NT35510_RS;
    1030:	e50c5fe3 	str	r5, [ip, #-4067]	; 0xfe3
 FIOSET = (cmd    <<NT35510_DT);
    1034:	e50c3fe7 	str	r3, [ip, #-4071]	; 0xfe7
 WR_OFF;
    1038:	e50c4fe3 	str	r4, [ip, #-4067]	; 0xfe3

 WR_ON;
    103c:	e50c4fe7 	str	r4, [ip, #-4071]	; 0xfe7
 NT35510_Cmd( CMD_SET_PAGE   );   NT35510_Data( y0>>8 ); // Start Row    High byte
 NT35510_Cmd( CMD_SET_PAGE+1 );   NT35510_Data( y0    ); // Start Row    Low  byte
 NT35510_Cmd( CMD_SET_PAGE+2 );   NT35510_Data( y1>>8 ); // End   Row    High byte
 NT35510_Cmd( CMD_SET_PAGE+3 );   NT35510_Data( y1    ); // End   Row    Low  byte
 NT35510_Cmd( CMD_RD_MEMSTART );
}
    1040:	e8bd0ff0 	pop	{r4, r5, r6, r7, r8, r9, sl, fp}
    1044:	e12fff1e 	bx	lr
    1048:	3fffcfff 	.word	0x3fffcfff
    104c:	ffff2000 	.word	0xffff2000
    1050:	ffff0000 	.word	0xffff0000
    1054:	2a020000 	.word	0x2a020000

00001058 <NT35510_ReadCMD>:
// ---------------------------------------------------
inline unsigned short NT35510_ReadCMD( unsigned short cmd )
{
    1058:	e92d4038 	push	{r3, r4, r5, lr}
 unsigned short data;
 CS_OFF;
 RS_OFF; // CMD
 FIOCLR = (0xFFFF << NT35510_DT);
    105c:	e59f107c 	ldr	r1, [pc, #124]	; 10e0 <NT35510_ReadCMD+0x88>
}
// ---------------------------------------------------
inline unsigned short NT35510_ReadCMD( unsigned short cmd )
{
 unsigned short data;
 CS_OFF;
    1060:	e59f407c 	ldr	r4, [pc, #124]	; 10e4 <NT35510_ReadCMD+0x8c>
    1064:	e3a05a01 	mov	r5, #4096	; 0x1000
 RS_OFF; // CMD
    1068:	e3a03a02 	mov	r3, #8192	; 0x2000
 FIOCLR = (0xFFFF << NT35510_DT);
 FIOSET = (cmd    << NT35510_DT);
    106c:	e1a00800 	lsl	r0, r0, #16
 WR_OFF;
    1070:	e3a02b02 	mov	r2, #2048	; 0x800
}
// ---------------------------------------------------
inline unsigned short NT35510_ReadCMD( unsigned short cmd )
{
 unsigned short data;
 CS_OFF;
    1074:	e5045fe3 	str	r5, [r4, #-4067]	; 0xfe3
 RS_OFF; // CMD
    1078:	e5043fe3 	str	r3, [r4, #-4067]	; 0xfe3
 FIOCLR = (0xFFFF << NT35510_DT);
    107c:	e5041fe3 	str	r1, [r4, #-4067]	; 0xfe3
 FIOSET = (cmd    << NT35510_DT);
    1080:	e5040fe7 	str	r0, [r4, #-4071]	; 0xfe7
 WR_OFF;
    1084:	e5042fe3 	str	r2, [r4, #-4067]	; 0xfe3
   asm("nop");
    1088:	e1a00000 	nop			; (mov r0, r0)
 WR_ON;
    108c:	e5042fe7 	str	r2, [r4, #-4071]	; 0xfe7

 RS_ON; // DATA
    1090:	e5043fe7 	str	r3, [r4, #-4071]	; 0xfe7
 DT_INPUT;
    1094:	e5143fff 	ldr	r3, [r4, #-4095]	; 0xfff
    1098:	e1a03803 	lsl	r3, r3, #16
    109c:	e1a03823 	lsr	r3, r3, #16
    10a0:	e5043fff 	str	r3, [r4, #-4095]	; 0xfff
 _delay_us(10);
    10a4:	e3a00092 	mov	r0, #146	; 0x92
    10a8:	ebfffcac 	bl	360 <_delay_loop>
 RD_OFF;
    10ac:	e3a03902 	mov	r3, #32768	; 0x8000
    10b0:	e5043fe3 	str	r3, [r4, #-4067]	; 0xfe3
   asm("nop");
    10b4:	e1a00000 	nop			; (mov r0, r0)
   data = (FIOPIN >> NT35510_DT) & 0xFFFF;
    10b8:	e5140feb 	ldr	r0, [r4, #-4075]	; 0xfeb
 RD_ON;
    10bc:	e5043fe7 	str	r3, [r4, #-4071]	; 0xfe7

 DT_OUTPUT;
    10c0:	e5143fff 	ldr	r3, [r4, #-4095]	; 0xfff
    10c4:	e1e03803 	mvn	r3, r3, lsl #16
    10c8:	e1e03823 	mvn	r3, r3, lsr #16
    10cc:	e5043fff 	str	r3, [r4, #-4095]	; 0xfff
 CS_ON;
 return data;
}
    10d0:	e1a00820 	lsr	r0, r0, #16
   asm("nop");
   data = (FIOPIN >> NT35510_DT) & 0xFFFF;
 RD_ON;

 DT_OUTPUT;
 CS_ON;
    10d4:	e5045fe7 	str	r5, [r4, #-4071]	; 0xfe7
 return data;
}
    10d8:	e8bd4038 	pop	{r3, r4, r5, lr}
    10dc:	e12fff1e 	bx	lr
    10e0:	ffff0000 	.word	0xffff0000
    10e4:	3fffcfff 	.word	0x3fffcfff

000010e8 <TFT_Init>:
// ---------------------------------------------------
void TFT_Init()
{
 FIODIR = FIODIR | NT35510_CS | NT35510_RS | NT35510_WR | NT35510_RD |
    10e8:	e59f1ff8 	ldr	r1, [pc, #4088]	; 20e8 <TFT_Init+0x1000>
 CS_ON;
 return data;
}
// ---------------------------------------------------
void TFT_Init()
{
    10ec:	e92d4ff8 	push	{r3, r4, r5, r6, r7, r8, r9, sl, fp, lr}
 FIODIR = FIODIR | NT35510_CS | NT35510_RS | NT35510_WR | NT35510_RD |
    10f0:	e5112fff 	ldr	r2, [r1, #-4095]	; 0xfff
    10f4:	e59f3ff0 	ldr	r3, [pc, #4080]	; 20ec <TFT_Init+0x1004>
    10f8:	e1823003 	orr	r3, r2, r3
    10fc:	e59f2fe4 	ldr	r2, [pc, #4068]	; 20e8 <TFT_Init+0x1000>
    1100:	e5023fff 	str	r3, [r2, #-4095]	; 0xfff
	 (0xFFFF << NT35510_DT);
 CS_OFF;
    1104:	e3a03a01 	mov	r3, #4096	; 0x1000
    1108:	e5023fe3 	str	r3, [r2, #-4067]	; 0xfe3
 
 //************* NT35510**********//	
 NT35510_Reg(0xF000, 0x55);  //#Enable Page1
    110c:	e3a00a0f 	mov	r0, #61440	; 0xf000
    1110:	e3a01055 	mov	r1, #85	; 0x55
    1114:	ebfffeda 	bl	c84 <NT35510_Reg>
 NT35510_Reg(0xF001, 0xAA);
    1118:	e59f0fd0 	ldr	r0, [pc, #4048]	; 20f0 <TFT_Init+0x1008>
    111c:	e3a010aa 	mov	r1, #170	; 0xaa
    1120:	ebfffed7 	bl	c84 <NT35510_Reg>
 NT35510_Reg(0xF002, 0x52);
    1124:	e59f0fc8 	ldr	r0, [pc, #4040]	; 20f4 <TFT_Init+0x100c>
    1128:	e3a01052 	mov	r1, #82	; 0x52
    112c:	ebfffed4 	bl	c84 <NT35510_Reg>
 NT35510_Reg(0xF003, 0x08);
    1130:	e59f0fc0 	ldr	r0, [pc, #4032]	; 20f8 <TFT_Init+0x1010>
    1134:	e3a01008 	mov	r1, #8
    1138:	ebfffed1 	bl	c84 <NT35510_Reg>
 NT35510_Reg(0xF004, 0x01);
    113c:	e59f0fb8 	ldr	r0, [pc, #4024]	; 20fc <TFT_Init+0x1014>
    1140:	e3a01001 	mov	r1, #1
    1144:	ebfffece 	bl	c84 <NT35510_Reg>
 //# AVDD: manual
 NT35510_Reg(0xB600, 0x34);
    1148:	e3a00cb6 	mov	r0, #46592	; 0xb600
    114c:	e3a01034 	mov	r1, #52	; 0x34
    1150:	ebfffecb 	bl	c84 <NT35510_Reg>
 NT35510_Reg(0xB601, 0x34);
    1154:	e59f0fa4 	ldr	r0, [pc, #4004]	; 2100 <TFT_Init+0x1018>
    1158:	e3a01034 	mov	r1, #52	; 0x34
    115c:	ebfffec8 	bl	c84 <NT35510_Reg>
 NT35510_Reg(0xB602, 0x34);
    1160:	e59f0f9c 	ldr	r0, [pc, #3996]	; 2104 <TFT_Init+0x101c>
    1164:	e3a01034 	mov	r1, #52	; 0x34
    1168:	ebfffec5 	bl	c84 <NT35510_Reg>
 
 NT35510_Reg(0xB000, 0x0D);//09
    116c:	e3a00a0b 	mov	r0, #45056	; 0xb000
    1170:	e3a0100d 	mov	r1, #13
    1174:	ebfffec2 	bl	c84 <NT35510_Reg>
 NT35510_Reg(0xB001, 0x0D);
    1178:	e59f0f88 	ldr	r0, [pc, #3976]	; 2108 <TFT_Init+0x1020>
    117c:	e3a0100d 	mov	r1, #13
    1180:	ebfffebf 	bl	c84 <NT35510_Reg>
 NT35510_Reg(0xB002, 0x0D);
    1184:	e59f0f80 	ldr	r0, [pc, #3968]	; 210c <TFT_Init+0x1024>
    1188:	e3a0100d 	mov	r1, #13
    118c:	ebfffebc 	bl	c84 <NT35510_Reg>
 //# AVEE: manual -6V
 NT35510_Reg(0xB700, 0x24);
    1190:	e3a00cb7 	mov	r0, #46848	; 0xb700
    1194:	e3a01024 	mov	r1, #36	; 0x24
    1198:	ebfffeb9 	bl	c84 <NT35510_Reg>
 NT35510_Reg(0xB701, 0x24);
    119c:	e59f0f6c 	ldr	r0, [pc, #3948]	; 2110 <TFT_Init+0x1028>
    11a0:	e3a01024 	mov	r1, #36	; 0x24
    11a4:	ebfffeb6 	bl	c84 <NT35510_Reg>
 NT35510_Reg(0xB702, 0x24);
    11a8:	e59f0f64 	ldr	r0, [pc, #3940]	; 2114 <TFT_Init+0x102c>
    11ac:	e3a01024 	mov	r1, #36	; 0x24
    11b0:	ebfffeb3 	bl	c84 <NT35510_Reg>
                    
 NT35510_Reg(0xB100, 0x0D);
    11b4:	e3a00cb1 	mov	r0, #45312	; 0xb100
    11b8:	e3a0100d 	mov	r1, #13
    11bc:	ebfffeb0 	bl	c84 <NT35510_Reg>
 NT35510_Reg(0xB101, 0x0D);
    11c0:	e59f0f50 	ldr	r0, [pc, #3920]	; 2118 <TFT_Init+0x1030>
    11c4:	e3a0100d 	mov	r1, #13
    11c8:	ebfffead 	bl	c84 <NT35510_Reg>
 NT35510_Reg(0xB102, 0x0D);
    11cc:	e59f0f48 	ldr	r0, [pc, #3912]	; 211c <TFT_Init+0x1034>
    11d0:	e3a0100d 	mov	r1, #13
    11d4:	ebfffeaa 	bl	c84 <NT35510_Reg>
 //#Power Control for
 //VCL
 NT35510_Reg(0xB800, 0x24);
    11d8:	e3a00b2e 	mov	r0, #47104	; 0xb800
    11dc:	e3a01024 	mov	r1, #36	; 0x24
    11e0:	ebfffea7 	bl	c84 <NT35510_Reg>
 NT35510_Reg(0xB801, 0x24);
    11e4:	e59f0f34 	ldr	r0, [pc, #3892]	; 2120 <TFT_Init+0x1038>
    11e8:	e3a01024 	mov	r1, #36	; 0x24
    11ec:	ebfffea4 	bl	c84 <NT35510_Reg>
 NT35510_Reg(0xB802, 0x24);
    11f0:	e59f0f2c 	ldr	r0, [pc, #3884]	; 2124 <TFT_Init+0x103c>
    11f4:	e3a01024 	mov	r1, #36	; 0x24
    11f8:	ebfffea1 	bl	c84 <NT35510_Reg>
                   
 NT35510_Reg(0xB200, 0x00);
    11fc:	e3a00cb2 	mov	r0, #45568	; 0xb200
    1200:	e3a01000 	mov	r1, #0
    1204:	ebfffe9e 	bl	c84 <NT35510_Reg>
 
 //# VGH: Clamp Enable
 NT35510_Reg(0xB900, 0x24);
    1208:	e3a00cb9 	mov	r0, #47360	; 0xb900
    120c:	e3a01024 	mov	r1, #36	; 0x24
    1210:	ebfffe9b 	bl	c84 <NT35510_Reg>
 NT35510_Reg(0xB901, 0x24);
    1214:	e59f0f0c 	ldr	r0, [pc, #3852]	; 2128 <TFT_Init+0x1040>
    1218:	e3a01024 	mov	r1, #36	; 0x24
    121c:	ebfffe98 	bl	c84 <NT35510_Reg>
 NT35510_Reg(0xB902, 0x24);
    1220:	e59f0f04 	ldr	r0, [pc, #3844]	; 212c <TFT_Init+0x1044>
    1224:	e3a01024 	mov	r1, #36	; 0x24
    1228:	ebfffe95 	bl	c84 <NT35510_Reg>
                   
 NT35510_Reg(0xB300, 0x05);
    122c:	e3a00cb3 	mov	r0, #45824	; 0xb300
    1230:	e3a01005 	mov	r1, #5
    1234:	ebfffe92 	bl	c84 <NT35510_Reg>
 NT35510_Reg(0xB301, 0x05);
    1238:	e59f0ef0 	ldr	r0, [pc, #3824]	; 2130 <TFT_Init+0x1048>
    123c:	e3a01005 	mov	r1, #5
    1240:	ebfffe8f 	bl	c84 <NT35510_Reg>
 NT35510_Reg(0xB302, 0x05);
    1244:	e59f0ee8 	ldr	r0, [pc, #3816]	; 2134 <TFT_Init+0x104c>
    1248:	e3a01005 	mov	r1, #5
    124c:	ebfffe8c 	bl	c84 <NT35510_Reg>
 
 ///NT35510_Reg(0xBF00, 0x01);
 
 //# VGL(LVGL):
 NT35510_Reg(0xBA00, 0x34);
    1250:	e3a00cba 	mov	r0, #47616	; 0xba00
    1254:	e3a01034 	mov	r1, #52	; 0x34
    1258:	ebfffe89 	bl	c84 <NT35510_Reg>
 NT35510_Reg(0xBA01, 0x34);
    125c:	e59f0ed4 	ldr	r0, [pc, #3796]	; 2138 <TFT_Init+0x1050>
    1260:	e3a01034 	mov	r1, #52	; 0x34
    1264:	ebfffe86 	bl	c84 <NT35510_Reg>
 NT35510_Reg(0xBA02, 0x34);
    1268:	e59f0ecc 	ldr	r0, [pc, #3788]	; 213c <TFT_Init+0x1054>
    126c:	e3a01034 	mov	r1, #52	; 0x34
    1270:	ebfffe83 	bl	c84 <NT35510_Reg>
 //# VGL_REG(VGLO)
 NT35510_Reg(0xB500, 0x0B);
    1274:	e3a00cb5 	mov	r0, #46336	; 0xb500
    1278:	e3a0100b 	mov	r1, #11
    127c:	ebfffe80 	bl	c84 <NT35510_Reg>
 NT35510_Reg(0xB501, 0x0B);
    1280:	e59f0eb8 	ldr	r0, [pc, #3768]	; 2140 <TFT_Init+0x1058>
    1284:	e3a0100b 	mov	r1, #11
    1288:	ebfffe7d 	bl	c84 <NT35510_Reg>
 NT35510_Reg(0xB502, 0x0B);
    128c:	e59f0eb0 	ldr	r0, [pc, #3760]	; 2144 <TFT_Init+0x105c>
    1290:	e3a0100b 	mov	r1, #11
    1294:	ebfffe7a 	bl	c84 <NT35510_Reg>
 //# VGMP/VGSP:
 NT35510_Reg(0xBC00, 0X00);
    1298:	e3a00b2f 	mov	r0, #48128	; 0xbc00
    129c:	e3a01000 	mov	r1, #0
    12a0:	ebfffe77 	bl	c84 <NT35510_Reg>
 NT35510_Reg(0xBC01, 0xA3);
    12a4:	e59f0e9c 	ldr	r0, [pc, #3740]	; 2148 <TFT_Init+0x1060>
    12a8:	e3a010a3 	mov	r1, #163	; 0xa3
    12ac:	ebfffe74 	bl	c84 <NT35510_Reg>
 NT35510_Reg(0xBC02, 0X00);
    12b0:	e59f0e94 	ldr	r0, [pc, #3732]	; 214c <TFT_Init+0x1064>
    12b4:	e3a01000 	mov	r1, #0
    12b8:	ebfffe71 	bl	c84 <NT35510_Reg>
 //# VGMN/VGSN
 NT35510_Reg(0xBD00, 0x00);
    12bc:	e3a00cbd 	mov	r0, #48384	; 0xbd00
    12c0:	e3a01000 	mov	r1, #0
    12c4:	ebfffe6e 	bl	c84 <NT35510_Reg>
 NT35510_Reg(0xBD01, 0xA3);
    12c8:	e59f0e80 	ldr	r0, [pc, #3712]	; 2150 <TFT_Init+0x1068>
    12cc:	e3a010a3 	mov	r1, #163	; 0xa3
    12d0:	ebfffe6b 	bl	c84 <NT35510_Reg>
 NT35510_Reg(0xBD02, 0x00);
    12d4:	e59f0e78 	ldr	r0, [pc, #3704]	; 2154 <TFT_Init+0x106c>
    12d8:	e3a01000 	mov	r1, #0
    12dc:	ebfffe68 	bl	c84 <NT35510_Reg>
 //# VCOM=-0.1
 NT35510_Reg(0xBE00, 0x00);
    12e0:	e3a00cbe 	mov	r0, #48640	; 0xbe00
    12e4:	e3a01000 	mov	r1, #0
    12e8:	ebfffe65 	bl	c84 <NT35510_Reg>
 NT35510_Reg(0xBE01, 0x63);//4f
    12ec:	e59f0e64 	ldr	r0, [pc, #3684]	; 2158 <TFT_Init+0x1070>
    12f0:	e3a01063 	mov	r1, #99	; 0x63
    12f4:	ebfffe62 	bl	c84 <NT35510_Reg>
 //  VCOMH+0x01;
 //#R+
 NT35510_Reg(0xD100, 0x00);
    12f8:	e3a00cd1 	mov	r0, #53504	; 0xd100
    12fc:	e3a01000 	mov	r1, #0
    1300:	ebfffe5f 	bl	c84 <NT35510_Reg>
 NT35510_Reg(0xD101, 0x37);
    1304:	e59f0e50 	ldr	r0, [pc, #3664]	; 215c <TFT_Init+0x1074>
    1308:	e3a01037 	mov	r1, #55	; 0x37
    130c:	ebfffe5c 	bl	c84 <NT35510_Reg>
 NT35510_Reg(0xD102, 0x00);
    1310:	e59f0e48 	ldr	r0, [pc, #3656]	; 2160 <TFT_Init+0x1078>
    1314:	e3a01000 	mov	r1, #0
    1318:	ebfffe59 	bl	c84 <NT35510_Reg>
 NT35510_Reg(0xD103, 0x52);
    131c:	e59f0e40 	ldr	r0, [pc, #3648]	; 2164 <TFT_Init+0x107c>
    1320:	e3a01052 	mov	r1, #82	; 0x52
    1324:	ebfffe56 	bl	c84 <NT35510_Reg>
 NT35510_Reg(0xD104, 0x00);
    1328:	e59f0e38 	ldr	r0, [pc, #3640]	; 2168 <TFT_Init+0x1080>
    132c:	e3a01000 	mov	r1, #0
    1330:	ebfffe53 	bl	c84 <NT35510_Reg>
 NT35510_Reg(0xD105, 0x7B);
    1334:	e59f0e30 	ldr	r0, [pc, #3632]	; 216c <TFT_Init+0x1084>
    1338:	e3a0107b 	mov	r1, #123	; 0x7b
    133c:	ebfffe50 	bl	c84 <NT35510_Reg>
 NT35510_Reg(0xD106, 0x00);
    1340:	e59f0e28 	ldr	r0, [pc, #3624]	; 2170 <TFT_Init+0x1088>
    1344:	e3a01000 	mov	r1, #0
    1348:	ebfffe4d 	bl	c84 <NT35510_Reg>
 NT35510_Reg(0xD107, 0x99);
    134c:	e59f0e20 	ldr	r0, [pc, #3616]	; 2174 <TFT_Init+0x108c>
    1350:	e3a01099 	mov	r1, #153	; 0x99
    1354:	ebfffe4a 	bl	c84 <NT35510_Reg>
 NT35510_Reg(0xD108, 0x00);
    1358:	e59f0e18 	ldr	r0, [pc, #3608]	; 2178 <TFT_Init+0x1090>
    135c:	e3a01000 	mov	r1, #0
    1360:	ebfffe47 	bl	c84 <NT35510_Reg>
 NT35510_Reg(0xD109, 0xB1);
    1364:	e59f0e10 	ldr	r0, [pc, #3600]	; 217c <TFT_Init+0x1094>
    1368:	e3a010b1 	mov	r1, #177	; 0xb1
    136c:	ebfffe44 	bl	c84 <NT35510_Reg>
 NT35510_Reg(0xD10A, 0x00);
    1370:	e59f0e08 	ldr	r0, [pc, #3592]	; 2180 <TFT_Init+0x1098>
    1374:	e3a01000 	mov	r1, #0
    1378:	ebfffe41 	bl	c84 <NT35510_Reg>
 NT35510_Reg(0xD10B, 0xD2);
    137c:	e59f0e00 	ldr	r0, [pc, #3584]	; 2184 <TFT_Init+0x109c>
    1380:	e3a010d2 	mov	r1, #210	; 0xd2
    1384:	ebfffe3e 	bl	c84 <NT35510_Reg>
 NT35510_Reg(0xD10C, 0x00);
    1388:	e59f0df8 	ldr	r0, [pc, #3576]	; 2188 <TFT_Init+0x10a0>
    138c:	e3a01000 	mov	r1, #0
    1390:	ebfffe3b 	bl	c84 <NT35510_Reg>
 NT35510_Reg(0xD10D, 0xF6);
    1394:	e59f0df0 	ldr	r0, [pc, #3568]	; 218c <TFT_Init+0x10a4>
    1398:	e3a010f6 	mov	r1, #246	; 0xf6
    139c:	ebfffe38 	bl	c84 <NT35510_Reg>
 NT35510_Reg(0xD10E, 0x01);
    13a0:	e59f0de8 	ldr	r0, [pc, #3560]	; 2190 <TFT_Init+0x10a8>
    13a4:	e3a01001 	mov	r1, #1
    13a8:	ebfffe35 	bl	c84 <NT35510_Reg>
 NT35510_Reg(0xD10F, 0x27);
    13ac:	e59f0de0 	ldr	r0, [pc, #3552]	; 2194 <TFT_Init+0x10ac>
    13b0:	e3a01027 	mov	r1, #39	; 0x27
    13b4:	ebfffe32 	bl	c84 <NT35510_Reg>
 NT35510_Reg(0xD110, 0x01);
    13b8:	e59f0dd8 	ldr	r0, [pc, #3544]	; 2198 <TFT_Init+0x10b0>
    13bc:	e3a01001 	mov	r1, #1
    13c0:	ebfffe2f 	bl	c84 <NT35510_Reg>
 NT35510_Reg(0xD111, 0x4E);
    13c4:	e59f0dd0 	ldr	r0, [pc, #3536]	; 219c <TFT_Init+0x10b4>
    13c8:	e3a0104e 	mov	r1, #78	; 0x4e
    13cc:	ebfffe2c 	bl	c84 <NT35510_Reg>
 NT35510_Reg(0xD112, 0x01);
    13d0:	e59f0dc8 	ldr	r0, [pc, #3528]	; 21a0 <TFT_Init+0x10b8>
    13d4:	e3a01001 	mov	r1, #1
    13d8:	ebfffe29 	bl	c84 <NT35510_Reg>
 NT35510_Reg(0xD113, 0x8C);
    13dc:	e59f0dc0 	ldr	r0, [pc, #3520]	; 21a4 <TFT_Init+0x10bc>
    13e0:	e3a0108c 	mov	r1, #140	; 0x8c
    13e4:	ebfffe26 	bl	c84 <NT35510_Reg>
 NT35510_Reg(0xD114, 0x01);
    13e8:	e59f0db8 	ldr	r0, [pc, #3512]	; 21a8 <TFT_Init+0x10c0>
    13ec:	e3a01001 	mov	r1, #1
    13f0:	ebfffe23 	bl	c84 <NT35510_Reg>
 NT35510_Reg(0xD115, 0xBE);
    13f4:	e59f0db0 	ldr	r0, [pc, #3504]	; 21ac <TFT_Init+0x10c4>
    13f8:	e3a010be 	mov	r1, #190	; 0xbe
    13fc:	ebfffe20 	bl	c84 <NT35510_Reg>
 NT35510_Reg(0xD116, 0x02);
    1400:	e59f0da8 	ldr	r0, [pc, #3496]	; 21b0 <TFT_Init+0x10c8>
    1404:	e3a01002 	mov	r1, #2
    1408:	ebfffe1d 	bl	c84 <NT35510_Reg>
 NT35510_Reg(0xD117, 0x0B);
    140c:	e59f0da0 	ldr	r0, [pc, #3488]	; 21b4 <TFT_Init+0x10cc>
    1410:	e3a0100b 	mov	r1, #11
    1414:	ebfffe1a 	bl	c84 <NT35510_Reg>
 NT35510_Reg(0xD118, 0x02);
    1418:	e59f0d98 	ldr	r0, [pc, #3480]	; 21b8 <TFT_Init+0x10d0>
    141c:	e3a01002 	mov	r1, #2
    1420:	ebfffe17 	bl	c84 <NT35510_Reg>
 NT35510_Reg(0xD119, 0x48);
    1424:	e59f0d90 	ldr	r0, [pc, #3472]	; 21bc <TFT_Init+0x10d4>
    1428:	e3a01048 	mov	r1, #72	; 0x48
    142c:	ebfffe14 	bl	c84 <NT35510_Reg>
 NT35510_Reg(0xD11A, 0x02);
    1430:	e59f0d88 	ldr	r0, [pc, #3464]	; 21c0 <TFT_Init+0x10d8>
    1434:	e3a01002 	mov	r1, #2
    1438:	ebfffe11 	bl	c84 <NT35510_Reg>
 NT35510_Reg(0xD11B, 0x4A);
    143c:	e59f0d80 	ldr	r0, [pc, #3456]	; 21c4 <TFT_Init+0x10dc>
    1440:	e3a0104a 	mov	r1, #74	; 0x4a
    1444:	ebfffe0e 	bl	c84 <NT35510_Reg>
 NT35510_Reg(0xD11C, 0x02);
    1448:	e59f0d78 	ldr	r0, [pc, #3448]	; 21c8 <TFT_Init+0x10e0>
    144c:	e3a01002 	mov	r1, #2
    1450:	ebfffe0b 	bl	c84 <NT35510_Reg>
 NT35510_Reg(0xD11D, 0x7E);
    1454:	e59f0d70 	ldr	r0, [pc, #3440]	; 21cc <TFT_Init+0x10e4>
    1458:	e3a0107e 	mov	r1, #126	; 0x7e
    145c:	ebfffe08 	bl	c84 <NT35510_Reg>
 NT35510_Reg(0xD11E, 0x02);
    1460:	e59f0d68 	ldr	r0, [pc, #3432]	; 21d0 <TFT_Init+0x10e8>
    1464:	e3a01002 	mov	r1, #2
    1468:	ebfffe05 	bl	c84 <NT35510_Reg>
 NT35510_Reg(0xD11F, 0xBC);
    146c:	e59f0d60 	ldr	r0, [pc, #3424]	; 21d4 <TFT_Init+0x10ec>
    1470:	e3a010bc 	mov	r1, #188	; 0xbc
    1474:	ebfffe02 	bl	c84 <NT35510_Reg>
 NT35510_Reg(0xD120, 0x02);
    1478:	e59f0d58 	ldr	r0, [pc, #3416]	; 21d8 <TFT_Init+0x10f0>
    147c:	e3a01002 	mov	r1, #2
    1480:	ebfffdff 	bl	c84 <NT35510_Reg>
 NT35510_Reg(0xD121, 0xE1);
    1484:	e59f0d50 	ldr	r0, [pc, #3408]	; 21dc <TFT_Init+0x10f4>
    1488:	e3a010e1 	mov	r1, #225	; 0xe1
    148c:	ebfffdfc 	bl	c84 <NT35510_Reg>
 NT35510_Reg(0xD122, 0x03);
    1490:	e59f0d48 	ldr	r0, [pc, #3400]	; 21e0 <TFT_Init+0x10f8>
    1494:	e3a01003 	mov	r1, #3
    1498:	ebfffdf9 	bl	c84 <NT35510_Reg>
 NT35510_Reg(0xD123, 0x10);
    149c:	e59f0d40 	ldr	r0, [pc, #3392]	; 21e4 <TFT_Init+0x10fc>
    14a0:	e3a01010 	mov	r1, #16
    14a4:	ebfffdf6 	bl	c84 <NT35510_Reg>
 NT35510_Reg(0xD124, 0x03);
    14a8:	e59f0d38 	ldr	r0, [pc, #3384]	; 21e8 <TFT_Init+0x1100>
    14ac:	e3a01003 	mov	r1, #3
    14b0:	ebfffdf3 	bl	c84 <NT35510_Reg>
 NT35510_Reg(0xD125, 0x31);
    14b4:	e59f0d30 	ldr	r0, [pc, #3376]	; 21ec <TFT_Init+0x1104>
    14b8:	e3a01031 	mov	r1, #49	; 0x31
    14bc:	ebfffdf0 	bl	c84 <NT35510_Reg>
 NT35510_Reg(0xD126, 0x03);
    14c0:	e59f0d28 	ldr	r0, [pc, #3368]	; 21f0 <TFT_Init+0x1108>
    14c4:	e3a01003 	mov	r1, #3
    14c8:	ebfffded 	bl	c84 <NT35510_Reg>
 NT35510_Reg(0xD127, 0x5A);
    14cc:	e59f0d20 	ldr	r0, [pc, #3360]	; 21f4 <TFT_Init+0x110c>
    14d0:	e3a0105a 	mov	r1, #90	; 0x5a
    14d4:	ebfffdea 	bl	c84 <NT35510_Reg>
 NT35510_Reg(0xD128, 0x03);
    14d8:	e59f0d18 	ldr	r0, [pc, #3352]	; 21f8 <TFT_Init+0x1110>
    14dc:	e3a01003 	mov	r1, #3
    14e0:	ebfffde7 	bl	c84 <NT35510_Reg>
 NT35510_Reg(0xD129, 0x73);
    14e4:	e59f0d10 	ldr	r0, [pc, #3344]	; 21fc <TFT_Init+0x1114>
    14e8:	e3a01073 	mov	r1, #115	; 0x73
    14ec:	ebfffde4 	bl	c84 <NT35510_Reg>
 NT35510_Reg(0xD12A, 0x03);
    14f0:	e59f0d08 	ldr	r0, [pc, #3336]	; 2200 <TFT_Init+0x1118>
    14f4:	e3a01003 	mov	r1, #3
    14f8:	ebfffde1 	bl	c84 <NT35510_Reg>
 NT35510_Reg(0xD12B, 0x94);
    14fc:	e59f0d00 	ldr	r0, [pc, #3328]	; 2204 <TFT_Init+0x111c>
    1500:	e3a01094 	mov	r1, #148	; 0x94
    1504:	ebfffdde 	bl	c84 <NT35510_Reg>
 NT35510_Reg(0xD12C, 0x03);
    1508:	e59f0cf8 	ldr	r0, [pc, #3320]	; 2208 <TFT_Init+0x1120>
    150c:	e3a01003 	mov	r1, #3
    1510:	ebfffddb 	bl	c84 <NT35510_Reg>
 NT35510_Reg(0xD12D, 0x9F);
    1514:	e59f0cf0 	ldr	r0, [pc, #3312]	; 220c <TFT_Init+0x1124>
    1518:	e3a0109f 	mov	r1, #159	; 0x9f
    151c:	ebfffdd8 	bl	c84 <NT35510_Reg>
 NT35510_Reg(0xD12E, 0x03);
    1520:	e59f0ce8 	ldr	r0, [pc, #3304]	; 2210 <TFT_Init+0x1128>
    1524:	e3a01003 	mov	r1, #3
    1528:	ebfffdd5 	bl	c84 <NT35510_Reg>
 NT35510_Reg(0xD12F, 0xB3);
    152c:	e59f0ce0 	ldr	r0, [pc, #3296]	; 2214 <TFT_Init+0x112c>
    1530:	e3a010b3 	mov	r1, #179	; 0xb3
    1534:	ebfffdd2 	bl	c84 <NT35510_Reg>
 NT35510_Reg(0xD130, 0x03);
    1538:	e59f0cd8 	ldr	r0, [pc, #3288]	; 2218 <TFT_Init+0x1130>
    153c:	e3a01003 	mov	r1, #3
    1540:	ebfffdcf 	bl	c84 <NT35510_Reg>
 NT35510_Reg(0xD131, 0xB9);
    1544:	e59f0cd0 	ldr	r0, [pc, #3280]	; 221c <TFT_Init+0x1134>
    1548:	e3a010b9 	mov	r1, #185	; 0xb9
    154c:	ebfffdcc 	bl	c84 <NT35510_Reg>
 NT35510_Reg(0xD132, 0x03);
    1550:	e59f0cc8 	ldr	r0, [pc, #3272]	; 2220 <TFT_Init+0x1138>
    1554:	e3a01003 	mov	r1, #3
    1558:	ebfffdc9 	bl	c84 <NT35510_Reg>
 NT35510_Reg(0xD133, 0xC1);
    155c:	e59f0cc0 	ldr	r0, [pc, #3264]	; 2224 <TFT_Init+0x113c>
    1560:	e3a010c1 	mov	r1, #193	; 0xc1
    1564:	ebfffdc6 	bl	c84 <NT35510_Reg>
 //#G+   
 NT35510_Reg(0xD200, 0x00);
    1568:	e3a00cd2 	mov	r0, #53760	; 0xd200
    156c:	e3a01000 	mov	r1, #0
    1570:	ebfffdc3 	bl	c84 <NT35510_Reg>
 NT35510_Reg(0xD201, 0x37);
    1574:	e59f0cac 	ldr	r0, [pc, #3244]	; 2228 <TFT_Init+0x1140>
    1578:	e3a01037 	mov	r1, #55	; 0x37
    157c:	ebfffdc0 	bl	c84 <NT35510_Reg>
 NT35510_Reg(0xD202, 0x00);
    1580:	e59f0ca4 	ldr	r0, [pc, #3236]	; 222c <TFT_Init+0x1144>
    1584:	e3a01000 	mov	r1, #0
    1588:	ebfffdbd 	bl	c84 <NT35510_Reg>
 NT35510_Reg(0xD203, 0x52);
    158c:	e59f0c9c 	ldr	r0, [pc, #3228]	; 2230 <TFT_Init+0x1148>
    1590:	e3a01052 	mov	r1, #82	; 0x52
    1594:	ebfffdba 	bl	c84 <NT35510_Reg>
 NT35510_Reg(0xD204, 0x00);
    1598:	e59f0c94 	ldr	r0, [pc, #3220]	; 2234 <TFT_Init+0x114c>
    159c:	e3a01000 	mov	r1, #0
    15a0:	ebfffdb7 	bl	c84 <NT35510_Reg>
 NT35510_Reg(0xD205, 0x7B);
    15a4:	e59f0c8c 	ldr	r0, [pc, #3212]	; 2238 <TFT_Init+0x1150>
    15a8:	e3a0107b 	mov	r1, #123	; 0x7b
    15ac:	ebfffdb4 	bl	c84 <NT35510_Reg>
 NT35510_Reg(0xD206, 0x00);
    15b0:	e59f0c84 	ldr	r0, [pc, #3204]	; 223c <TFT_Init+0x1154>
    15b4:	e3a01000 	mov	r1, #0
    15b8:	ebfffdb1 	bl	c84 <NT35510_Reg>
 NT35510_Reg(0xD207, 0x99);
    15bc:	e59f0c7c 	ldr	r0, [pc, #3196]	; 2240 <TFT_Init+0x1158>
    15c0:	e3a01099 	mov	r1, #153	; 0x99
    15c4:	ebfffdae 	bl	c84 <NT35510_Reg>
 NT35510_Reg(0xD208, 0x00);
    15c8:	e59f0c74 	ldr	r0, [pc, #3188]	; 2244 <TFT_Init+0x115c>
    15cc:	e3a01000 	mov	r1, #0
    15d0:	ebfffdab 	bl	c84 <NT35510_Reg>
 NT35510_Reg(0xD209, 0xB1);
    15d4:	e59f0c6c 	ldr	r0, [pc, #3180]	; 2248 <TFT_Init+0x1160>
    15d8:	e3a010b1 	mov	r1, #177	; 0xb1
    15dc:	ebfffda8 	bl	c84 <NT35510_Reg>
 NT35510_Reg(0xD20A, 0x00);
    15e0:	e59f0c64 	ldr	r0, [pc, #3172]	; 224c <TFT_Init+0x1164>
    15e4:	e3a01000 	mov	r1, #0
    15e8:	ebfffda5 	bl	c84 <NT35510_Reg>
 NT35510_Reg(0xD20B, 0xD2);
    15ec:	e59f0c5c 	ldr	r0, [pc, #3164]	; 2250 <TFT_Init+0x1168>
    15f0:	e3a010d2 	mov	r1, #210	; 0xd2
    15f4:	ebfffda2 	bl	c84 <NT35510_Reg>
 NT35510_Reg(0xD20C, 0x00);
    15f8:	e59f0c54 	ldr	r0, [pc, #3156]	; 2254 <TFT_Init+0x116c>
    15fc:	e3a01000 	mov	r1, #0
    1600:	ebfffd9f 	bl	c84 <NT35510_Reg>
 NT35510_Reg(0xD20D, 0xF6);
    1604:	e59f0c4c 	ldr	r0, [pc, #3148]	; 2258 <TFT_Init+0x1170>
    1608:	e3a010f6 	mov	r1, #246	; 0xf6
    160c:	ebfffd9c 	bl	c84 <NT35510_Reg>
 NT35510_Reg(0xD20E, 0x01);
    1610:	e59f0c44 	ldr	r0, [pc, #3140]	; 225c <TFT_Init+0x1174>
    1614:	e3a01001 	mov	r1, #1
    1618:	ebfffd99 	bl	c84 <NT35510_Reg>
 NT35510_Reg(0xD20F, 0x27);
    161c:	e59f0c3c 	ldr	r0, [pc, #3132]	; 2260 <TFT_Init+0x1178>
    1620:	e3a01027 	mov	r1, #39	; 0x27
    1624:	ebfffd96 	bl	c84 <NT35510_Reg>
 NT35510_Reg(0xD210, 0x01);
    1628:	e59f0c34 	ldr	r0, [pc, #3124]	; 2264 <TFT_Init+0x117c>
    162c:	e3a01001 	mov	r1, #1
    1630:	ebfffd93 	bl	c84 <NT35510_Reg>
 NT35510_Reg(0xD211, 0x4E);
    1634:	e59f0c2c 	ldr	r0, [pc, #3116]	; 2268 <TFT_Init+0x1180>
    1638:	e3a0104e 	mov	r1, #78	; 0x4e
    163c:	ebfffd90 	bl	c84 <NT35510_Reg>
 NT35510_Reg(0xD212, 0x01);
    1640:	e59f0c24 	ldr	r0, [pc, #3108]	; 226c <TFT_Init+0x1184>
    1644:	e3a01001 	mov	r1, #1
    1648:	ebfffd8d 	bl	c84 <NT35510_Reg>
 NT35510_Reg(0xD213, 0x8C);
    164c:	e59f0c1c 	ldr	r0, [pc, #3100]	; 2270 <TFT_Init+0x1188>
    1650:	e3a0108c 	mov	r1, #140	; 0x8c
    1654:	ebfffd8a 	bl	c84 <NT35510_Reg>
 NT35510_Reg(0xD214, 0x01);
    1658:	e59f0c14 	ldr	r0, [pc, #3092]	; 2274 <TFT_Init+0x118c>
    165c:	e3a01001 	mov	r1, #1
    1660:	ebfffd87 	bl	c84 <NT35510_Reg>
 NT35510_Reg(0xD215, 0xBE);
    1664:	e59f0c0c 	ldr	r0, [pc, #3084]	; 2278 <TFT_Init+0x1190>
    1668:	e3a010be 	mov	r1, #190	; 0xbe
    166c:	ebfffd84 	bl	c84 <NT35510_Reg>
 NT35510_Reg(0xD216, 0x02);
    1670:	e59f0c04 	ldr	r0, [pc, #3076]	; 227c <TFT_Init+0x1194>
    1674:	e3a01002 	mov	r1, #2
    1678:	ebfffd81 	bl	c84 <NT35510_Reg>
 NT35510_Reg(0xD217, 0x0B);
    167c:	e59f0bfc 	ldr	r0, [pc, #3068]	; 2280 <TFT_Init+0x1198>
    1680:	e3a0100b 	mov	r1, #11
    1684:	ebfffd7e 	bl	c84 <NT35510_Reg>
 NT35510_Reg(0xD218, 0x02);
    1688:	e59f0bf4 	ldr	r0, [pc, #3060]	; 2284 <TFT_Init+0x119c>
    168c:	e3a01002 	mov	r1, #2
    1690:	ebfffd7b 	bl	c84 <NT35510_Reg>
 NT35510_Reg(0xD219, 0x48);
    1694:	e59f0bec 	ldr	r0, [pc, #3052]	; 2288 <TFT_Init+0x11a0>
    1698:	e3a01048 	mov	r1, #72	; 0x48
    169c:	ebfffd78 	bl	c84 <NT35510_Reg>
 NT35510_Reg(0xD21A, 0x02);
    16a0:	e59f0be4 	ldr	r0, [pc, #3044]	; 228c <TFT_Init+0x11a4>
    16a4:	e3a01002 	mov	r1, #2
    16a8:	ebfffd75 	bl	c84 <NT35510_Reg>
 NT35510_Reg(0xD21B, 0x4A);
    16ac:	e59f0bdc 	ldr	r0, [pc, #3036]	; 2290 <TFT_Init+0x11a8>
    16b0:	e3a0104a 	mov	r1, #74	; 0x4a
    16b4:	ebfffd72 	bl	c84 <NT35510_Reg>
 NT35510_Reg(0xD21C, 0x02);
    16b8:	e59f0bd4 	ldr	r0, [pc, #3028]	; 2294 <TFT_Init+0x11ac>
    16bc:	e3a01002 	mov	r1, #2
    16c0:	ebfffd6f 	bl	c84 <NT35510_Reg>
 NT35510_Reg(0xD21D, 0x7E);
    16c4:	e59f0bcc 	ldr	r0, [pc, #3020]	; 2298 <TFT_Init+0x11b0>
    16c8:	e3a0107e 	mov	r1, #126	; 0x7e
    16cc:	ebfffd6c 	bl	c84 <NT35510_Reg>
 NT35510_Reg(0xD21E, 0x02);
    16d0:	e59f0bc4 	ldr	r0, [pc, #3012]	; 229c <TFT_Init+0x11b4>
    16d4:	e3a01002 	mov	r1, #2
    16d8:	ebfffd69 	bl	c84 <NT35510_Reg>
 NT35510_Reg(0xD21F, 0xBC);
    16dc:	e59f0bbc 	ldr	r0, [pc, #3004]	; 22a0 <TFT_Init+0x11b8>
    16e0:	e3a010bc 	mov	r1, #188	; 0xbc
    16e4:	ebfffd66 	bl	c84 <NT35510_Reg>
 NT35510_Reg(0xD220, 0x02);
    16e8:	e59f0bb4 	ldr	r0, [pc, #2996]	; 22a4 <TFT_Init+0x11bc>
    16ec:	e3a01002 	mov	r1, #2
    16f0:	ebfffd63 	bl	c84 <NT35510_Reg>
 NT35510_Reg(0xD221, 0xE1);
    16f4:	e59f0bac 	ldr	r0, [pc, #2988]	; 22a8 <TFT_Init+0x11c0>
    16f8:	e3a010e1 	mov	r1, #225	; 0xe1
    16fc:	ebfffd60 	bl	c84 <NT35510_Reg>
 NT35510_Reg(0xD222, 0x03);
    1700:	e59f0ba4 	ldr	r0, [pc, #2980]	; 22ac <TFT_Init+0x11c4>
    1704:	e3a01003 	mov	r1, #3
    1708:	ebfffd5d 	bl	c84 <NT35510_Reg>
 NT35510_Reg(0xD223, 0x10);
    170c:	e59f0b9c 	ldr	r0, [pc, #2972]	; 22b0 <TFT_Init+0x11c8>
    1710:	e3a01010 	mov	r1, #16
    1714:	ebfffd5a 	bl	c84 <NT35510_Reg>
 NT35510_Reg(0xD224, 0x03);
    1718:	e59f0b94 	ldr	r0, [pc, #2964]	; 22b4 <TFT_Init+0x11cc>
    171c:	e3a01003 	mov	r1, #3
    1720:	ebfffd57 	bl	c84 <NT35510_Reg>
 NT35510_Reg(0xD225, 0x31);
    1724:	e59f0b8c 	ldr	r0, [pc, #2956]	; 22b8 <TFT_Init+0x11d0>
    1728:	e3a01031 	mov	r1, #49	; 0x31
    172c:	ebfffd54 	bl	c84 <NT35510_Reg>
 NT35510_Reg(0xD226, 0x03);
    1730:	e59f0b84 	ldr	r0, [pc, #2948]	; 22bc <TFT_Init+0x11d4>
    1734:	e3a01003 	mov	r1, #3
    1738:	ebfffd51 	bl	c84 <NT35510_Reg>
 NT35510_Reg(0xD227, 0x5A);
    173c:	e59f0b7c 	ldr	r0, [pc, #2940]	; 22c0 <TFT_Init+0x11d8>
    1740:	e3a0105a 	mov	r1, #90	; 0x5a
    1744:	ebfffd4e 	bl	c84 <NT35510_Reg>
 NT35510_Reg(0xD228, 0x03);
    1748:	e59f0b74 	ldr	r0, [pc, #2932]	; 22c4 <TFT_Init+0x11dc>
    174c:	e3a01003 	mov	r1, #3
    1750:	ebfffd4b 	bl	c84 <NT35510_Reg>
 NT35510_Reg(0xD229, 0x73);
    1754:	e59f0b6c 	ldr	r0, [pc, #2924]	; 22c8 <TFT_Init+0x11e0>
    1758:	e3a01073 	mov	r1, #115	; 0x73
    175c:	ebfffd48 	bl	c84 <NT35510_Reg>
 NT35510_Reg(0xD22A, 0x03);
    1760:	e59f0b64 	ldr	r0, [pc, #2916]	; 22cc <TFT_Init+0x11e4>
    1764:	e3a01003 	mov	r1, #3
    1768:	ebfffd45 	bl	c84 <NT35510_Reg>
 NT35510_Reg(0xD22B, 0x94);
    176c:	e59f0b5c 	ldr	r0, [pc, #2908]	; 22d0 <TFT_Init+0x11e8>
    1770:	e3a01094 	mov	r1, #148	; 0x94
    1774:	ebfffd42 	bl	c84 <NT35510_Reg>
 NT35510_Reg(0xD22C, 0x03);
    1778:	e59f0b54 	ldr	r0, [pc, #2900]	; 22d4 <TFT_Init+0x11ec>
    177c:	e3a01003 	mov	r1, #3
    1780:	ebfffd3f 	bl	c84 <NT35510_Reg>
 NT35510_Reg(0xD22D, 0x9F);
    1784:	e59f0b4c 	ldr	r0, [pc, #2892]	; 22d8 <TFT_Init+0x11f0>
    1788:	e3a0109f 	mov	r1, #159	; 0x9f
    178c:	ebfffd3c 	bl	c84 <NT35510_Reg>
 NT35510_Reg(0xD22E, 0x03);
    1790:	e59f0b44 	ldr	r0, [pc, #2884]	; 22dc <TFT_Init+0x11f4>
    1794:	e3a01003 	mov	r1, #3
    1798:	ebfffd39 	bl	c84 <NT35510_Reg>
 NT35510_Reg(0xD22F, 0xB3);
    179c:	e59f0b3c 	ldr	r0, [pc, #2876]	; 22e0 <TFT_Init+0x11f8>
    17a0:	e3a010b3 	mov	r1, #179	; 0xb3
    17a4:	ebfffd36 	bl	c84 <NT35510_Reg>
 NT35510_Reg(0xD230, 0x03);
    17a8:	e59f0b34 	ldr	r0, [pc, #2868]	; 22e4 <TFT_Init+0x11fc>
    17ac:	e3a01003 	mov	r1, #3
    17b0:	ebfffd33 	bl	c84 <NT35510_Reg>
 NT35510_Reg(0xD231, 0xB9);
    17b4:	e59f0b2c 	ldr	r0, [pc, #2860]	; 22e8 <TFT_Init+0x1200>
    17b8:	e3a010b9 	mov	r1, #185	; 0xb9
    17bc:	ebfffd30 	bl	c84 <NT35510_Reg>
 NT35510_Reg(0xD232, 0x03);
    17c0:	e59f0b24 	ldr	r0, [pc, #2852]	; 22ec <TFT_Init+0x1204>
    17c4:	e3a01003 	mov	r1, #3
    17c8:	ebfffd2d 	bl	c84 <NT35510_Reg>
 NT35510_Reg(0xD233, 0xC1);
    17cc:	e59f0b1c 	ldr	r0, [pc, #2844]	; 22f0 <TFT_Init+0x1208>
    17d0:	e3a010c1 	mov	r1, #193	; 0xc1
    17d4:	ebfffd2a 	bl	c84 <NT35510_Reg>
 //#B+   
 NT35510_Reg(0xD300, 0x00);
    17d8:	e3a00cd3 	mov	r0, #54016	; 0xd300
    17dc:	e3a01000 	mov	r1, #0
    17e0:	ebfffd27 	bl	c84 <NT35510_Reg>
 NT35510_Reg(0xD301, 0x37);
    17e4:	e59f0b08 	ldr	r0, [pc, #2824]	; 22f4 <TFT_Init+0x120c>
    17e8:	e3a01037 	mov	r1, #55	; 0x37
    17ec:	ebfffd24 	bl	c84 <NT35510_Reg>
 NT35510_Reg(0xD302, 0x00);
    17f0:	e59f0b00 	ldr	r0, [pc, #2816]	; 22f8 <TFT_Init+0x1210>
    17f4:	e3a01000 	mov	r1, #0
    17f8:	ebfffd21 	bl	c84 <NT35510_Reg>
 NT35510_Reg(0xD303, 0x52);
    17fc:	e59f0af8 	ldr	r0, [pc, #2808]	; 22fc <TFT_Init+0x1214>
    1800:	e3a01052 	mov	r1, #82	; 0x52
    1804:	ebfffd1e 	bl	c84 <NT35510_Reg>
 NT35510_Reg(0xD304, 0x00);
    1808:	e59f0af0 	ldr	r0, [pc, #2800]	; 2300 <TFT_Init+0x1218>
    180c:	e3a01000 	mov	r1, #0
    1810:	ebfffd1b 	bl	c84 <NT35510_Reg>
 NT35510_Reg(0xD305, 0x7B);
    1814:	e59f0ae8 	ldr	r0, [pc, #2792]	; 2304 <TFT_Init+0x121c>
    1818:	e3a0107b 	mov	r1, #123	; 0x7b
    181c:	ebfffd18 	bl	c84 <NT35510_Reg>
 NT35510_Reg(0xD306, 0x00);
    1820:	e59f0ae0 	ldr	r0, [pc, #2784]	; 2308 <TFT_Init+0x1220>
    1824:	e3a01000 	mov	r1, #0
    1828:	ebfffd15 	bl	c84 <NT35510_Reg>
 NT35510_Reg(0xD307, 0x99);
    182c:	e59f0ad8 	ldr	r0, [pc, #2776]	; 230c <TFT_Init+0x1224>
    1830:	e3a01099 	mov	r1, #153	; 0x99
    1834:	ebfffd12 	bl	c84 <NT35510_Reg>
 NT35510_Reg(0xD308, 0x00);
    1838:	e59f0ad0 	ldr	r0, [pc, #2768]	; 2310 <TFT_Init+0x1228>
    183c:	e3a01000 	mov	r1, #0
    1840:	ebfffd0f 	bl	c84 <NT35510_Reg>
 NT35510_Reg(0xD309, 0xB1);
    1844:	e59f0ac8 	ldr	r0, [pc, #2760]	; 2314 <TFT_Init+0x122c>
    1848:	e3a010b1 	mov	r1, #177	; 0xb1
    184c:	ebfffd0c 	bl	c84 <NT35510_Reg>
 NT35510_Reg(0xD30A, 0x00);
    1850:	e59f0ac0 	ldr	r0, [pc, #2752]	; 2318 <TFT_Init+0x1230>
    1854:	e3a01000 	mov	r1, #0
    1858:	ebfffd09 	bl	c84 <NT35510_Reg>
 NT35510_Reg(0xD30B, 0xD2);
    185c:	e59f0ab8 	ldr	r0, [pc, #2744]	; 231c <TFT_Init+0x1234>
    1860:	e3a010d2 	mov	r1, #210	; 0xd2
    1864:	ebfffd06 	bl	c84 <NT35510_Reg>
 NT35510_Reg(0xD30C, 0x00);
    1868:	e59f0ab0 	ldr	r0, [pc, #2736]	; 2320 <TFT_Init+0x1238>
    186c:	e3a01000 	mov	r1, #0
    1870:	ebfffd03 	bl	c84 <NT35510_Reg>
 NT35510_Reg(0xD30D, 0xF6);
    1874:	e59f0aa8 	ldr	r0, [pc, #2728]	; 2324 <TFT_Init+0x123c>
    1878:	e3a010f6 	mov	r1, #246	; 0xf6
    187c:	ebfffd00 	bl	c84 <NT35510_Reg>
 NT35510_Reg(0xD30E, 0x01);
    1880:	e59f0aa0 	ldr	r0, [pc, #2720]	; 2328 <TFT_Init+0x1240>
    1884:	e3a01001 	mov	r1, #1
    1888:	ebfffcfd 	bl	c84 <NT35510_Reg>
 NT35510_Reg(0xD30F, 0x27);
    188c:	e59f0a98 	ldr	r0, [pc, #2712]	; 232c <TFT_Init+0x1244>
    1890:	e3a01027 	mov	r1, #39	; 0x27
    1894:	ebfffcfa 	bl	c84 <NT35510_Reg>
 NT35510_Reg(0xD310, 0x01);
    1898:	e59f0a90 	ldr	r0, [pc, #2704]	; 2330 <TFT_Init+0x1248>
    189c:	e3a01001 	mov	r1, #1
    18a0:	ebfffcf7 	bl	c84 <NT35510_Reg>
 NT35510_Reg(0xD311, 0x4E);
    18a4:	e59f0a88 	ldr	r0, [pc, #2696]	; 2334 <TFT_Init+0x124c>
    18a8:	e3a0104e 	mov	r1, #78	; 0x4e
    18ac:	ebfffcf4 	bl	c84 <NT35510_Reg>
 NT35510_Reg(0xD312, 0x01);
    18b0:	e59f0a80 	ldr	r0, [pc, #2688]	; 2338 <TFT_Init+0x1250>
    18b4:	e3a01001 	mov	r1, #1
    18b8:	ebfffcf1 	bl	c84 <NT35510_Reg>
 NT35510_Reg(0xD313, 0x8C);
    18bc:	e59f0a78 	ldr	r0, [pc, #2680]	; 233c <TFT_Init+0x1254>
    18c0:	e3a0108c 	mov	r1, #140	; 0x8c
    18c4:	ebfffcee 	bl	c84 <NT35510_Reg>
 NT35510_Reg(0xD314, 0x01);
    18c8:	e59f0a70 	ldr	r0, [pc, #2672]	; 2340 <TFT_Init+0x1258>
    18cc:	e3a01001 	mov	r1, #1
    18d0:	ebfffceb 	bl	c84 <NT35510_Reg>
 NT35510_Reg(0xD315, 0xBE);
    18d4:	e59f0a68 	ldr	r0, [pc, #2664]	; 2344 <TFT_Init+0x125c>
    18d8:	e3a010be 	mov	r1, #190	; 0xbe
    18dc:	ebfffce8 	bl	c84 <NT35510_Reg>
 NT35510_Reg(0xD316, 0x02);
    18e0:	e59f0a60 	ldr	r0, [pc, #2656]	; 2348 <TFT_Init+0x1260>
    18e4:	e3a01002 	mov	r1, #2
    18e8:	ebfffce5 	bl	c84 <NT35510_Reg>
 NT35510_Reg(0xD317, 0x0B);
    18ec:	e59f0a58 	ldr	r0, [pc, #2648]	; 234c <TFT_Init+0x1264>
    18f0:	e3a0100b 	mov	r1, #11
    18f4:	ebfffce2 	bl	c84 <NT35510_Reg>
 NT35510_Reg(0xD318, 0x02);
    18f8:	e59f0a50 	ldr	r0, [pc, #2640]	; 2350 <TFT_Init+0x1268>
    18fc:	e3a01002 	mov	r1, #2
    1900:	ebfffcdf 	bl	c84 <NT35510_Reg>
 NT35510_Reg(0xD319, 0x48);
    1904:	e59f0a48 	ldr	r0, [pc, #2632]	; 2354 <TFT_Init+0x126c>
    1908:	e3a01048 	mov	r1, #72	; 0x48
    190c:	ebfffcdc 	bl	c84 <NT35510_Reg>
 NT35510_Reg(0xD31A, 0x02);
    1910:	e59f0a40 	ldr	r0, [pc, #2624]	; 2358 <TFT_Init+0x1270>
    1914:	e3a01002 	mov	r1, #2
    1918:	ebfffcd9 	bl	c84 <NT35510_Reg>
 NT35510_Reg(0xD31B, 0x4A);
    191c:	e59f0a38 	ldr	r0, [pc, #2616]	; 235c <TFT_Init+0x1274>
    1920:	e3a0104a 	mov	r1, #74	; 0x4a
    1924:	ebfffcd6 	bl	c84 <NT35510_Reg>
 NT35510_Reg(0xD31C, 0x02);
    1928:	e59f0a30 	ldr	r0, [pc, #2608]	; 2360 <TFT_Init+0x1278>
    192c:	e3a01002 	mov	r1, #2
    1930:	ebfffcd3 	bl	c84 <NT35510_Reg>
 NT35510_Reg(0xD31D, 0x7E);
    1934:	e59f0a28 	ldr	r0, [pc, #2600]	; 2364 <TFT_Init+0x127c>
    1938:	e3a0107e 	mov	r1, #126	; 0x7e
    193c:	ebfffcd0 	bl	c84 <NT35510_Reg>
 NT35510_Reg(0xD31E, 0x02);
    1940:	e59f0a20 	ldr	r0, [pc, #2592]	; 2368 <TFT_Init+0x1280>
    1944:	e3a01002 	mov	r1, #2
    1948:	ebfffccd 	bl	c84 <NT35510_Reg>
 NT35510_Reg(0xD31F, 0xBC);
    194c:	e59f0a18 	ldr	r0, [pc, #2584]	; 236c <TFT_Init+0x1284>
    1950:	e3a010bc 	mov	r1, #188	; 0xbc
    1954:	ebfffcca 	bl	c84 <NT35510_Reg>
 NT35510_Reg(0xD320, 0x02);
    1958:	e59f0a10 	ldr	r0, [pc, #2576]	; 2370 <TFT_Init+0x1288>
    195c:	e3a01002 	mov	r1, #2
    1960:	ebfffcc7 	bl	c84 <NT35510_Reg>
 NT35510_Reg(0xD321, 0xE1);
    1964:	e59f0a08 	ldr	r0, [pc, #2568]	; 2374 <TFT_Init+0x128c>
    1968:	e3a010e1 	mov	r1, #225	; 0xe1
    196c:	ebfffcc4 	bl	c84 <NT35510_Reg>
 NT35510_Reg(0xD322, 0x03);
    1970:	e59f0a00 	ldr	r0, [pc, #2560]	; 2378 <TFT_Init+0x1290>
    1974:	e3a01003 	mov	r1, #3
    1978:	ebfffcc1 	bl	c84 <NT35510_Reg>
 NT35510_Reg(0xD323, 0x10);
    197c:	e59f09f8 	ldr	r0, [pc, #2552]	; 237c <TFT_Init+0x1294>
    1980:	e3a01010 	mov	r1, #16
    1984:	ebfffcbe 	bl	c84 <NT35510_Reg>
 NT35510_Reg(0xD324, 0x03);
    1988:	e59f09f0 	ldr	r0, [pc, #2544]	; 2380 <TFT_Init+0x1298>
    198c:	e3a01003 	mov	r1, #3
    1990:	ebfffcbb 	bl	c84 <NT35510_Reg>
 NT35510_Reg(0xD325, 0x31);
    1994:	e59f09e8 	ldr	r0, [pc, #2536]	; 2384 <TFT_Init+0x129c>
    1998:	e3a01031 	mov	r1, #49	; 0x31
    199c:	ebfffcb8 	bl	c84 <NT35510_Reg>
 NT35510_Reg(0xD326, 0x03);
    19a0:	e59f09e0 	ldr	r0, [pc, #2528]	; 2388 <TFT_Init+0x12a0>
    19a4:	e3a01003 	mov	r1, #3
    19a8:	ebfffcb5 	bl	c84 <NT35510_Reg>
 NT35510_Reg(0xD327, 0x5A);
    19ac:	e59f09d8 	ldr	r0, [pc, #2520]	; 238c <TFT_Init+0x12a4>
    19b0:	e3a0105a 	mov	r1, #90	; 0x5a
    19b4:	ebfffcb2 	bl	c84 <NT35510_Reg>
 NT35510_Reg(0xD328, 0x03);
    19b8:	e59f09d0 	ldr	r0, [pc, #2512]	; 2390 <TFT_Init+0x12a8>
    19bc:	e3a01003 	mov	r1, #3
    19c0:	ebfffcaf 	bl	c84 <NT35510_Reg>
 NT35510_Reg(0xD329, 0x73);
    19c4:	e59f09c8 	ldr	r0, [pc, #2504]	; 2394 <TFT_Init+0x12ac>
    19c8:	e3a01073 	mov	r1, #115	; 0x73
    19cc:	ebfffcac 	bl	c84 <NT35510_Reg>
 NT35510_Reg(0xD32A, 0x03);
    19d0:	e59f09c0 	ldr	r0, [pc, #2496]	; 2398 <TFT_Init+0x12b0>
    19d4:	e3a01003 	mov	r1, #3
    19d8:	ebfffca9 	bl	c84 <NT35510_Reg>
 NT35510_Reg(0xD32B, 0x94);
    19dc:	e59f09b8 	ldr	r0, [pc, #2488]	; 239c <TFT_Init+0x12b4>
    19e0:	e3a01094 	mov	r1, #148	; 0x94
    19e4:	ebfffca6 	bl	c84 <NT35510_Reg>
 NT35510_Reg(0xD32C, 0x03);
    19e8:	e59f09b0 	ldr	r0, [pc, #2480]	; 23a0 <TFT_Init+0x12b8>
    19ec:	e3a01003 	mov	r1, #3
    19f0:	ebfffca3 	bl	c84 <NT35510_Reg>
 NT35510_Reg(0xD32D, 0x9F);
    19f4:	e59f09a8 	ldr	r0, [pc, #2472]	; 23a4 <TFT_Init+0x12bc>
    19f8:	e3a0109f 	mov	r1, #159	; 0x9f
    19fc:	ebfffca0 	bl	c84 <NT35510_Reg>
 NT35510_Reg(0xD32E, 0x03);
    1a00:	e59f09a0 	ldr	r0, [pc, #2464]	; 23a8 <TFT_Init+0x12c0>
    1a04:	e3a01003 	mov	r1, #3
    1a08:	ebfffc9d 	bl	c84 <NT35510_Reg>
 NT35510_Reg(0xD32F, 0xB3);
    1a0c:	e59f0998 	ldr	r0, [pc, #2456]	; 23ac <TFT_Init+0x12c4>
    1a10:	e3a010b3 	mov	r1, #179	; 0xb3
    1a14:	ebfffc9a 	bl	c84 <NT35510_Reg>
 NT35510_Reg(0xD330, 0x03);
    1a18:	e59f0990 	ldr	r0, [pc, #2448]	; 23b0 <TFT_Init+0x12c8>
    1a1c:	e3a01003 	mov	r1, #3
    1a20:	ebfffc97 	bl	c84 <NT35510_Reg>
 NT35510_Reg(0xD331, 0xB9);
    1a24:	e59f0988 	ldr	r0, [pc, #2440]	; 23b4 <TFT_Init+0x12cc>
    1a28:	e3a010b9 	mov	r1, #185	; 0xb9
    1a2c:	ebfffc94 	bl	c84 <NT35510_Reg>
 NT35510_Reg(0xD332, 0x03);
    1a30:	e59f0980 	ldr	r0, [pc, #2432]	; 23b8 <TFT_Init+0x12d0>
    1a34:	e3a01003 	mov	r1, #3
    1a38:	ebfffc91 	bl	c84 <NT35510_Reg>
 NT35510_Reg(0xD333, 0xC1);
    1a3c:	e59f0978 	ldr	r0, [pc, #2424]	; 23bc <TFT_Init+0x12d4>
    1a40:	e3a010c1 	mov	r1, #193	; 0xc1
    1a44:	ebfffc8e 	bl	c84 <NT35510_Reg>
 
 //#R-///////////////////////////////////////////
 NT35510_Reg(0xD400, 0x00);
    1a48:	e3a00b35 	mov	r0, #54272	; 0xd400
    1a4c:	e3a01000 	mov	r1, #0
    1a50:	ebfffc8b 	bl	c84 <NT35510_Reg>
 NT35510_Reg(0xD401, 0x37);
    1a54:	e59f0964 	ldr	r0, [pc, #2404]	; 23c0 <TFT_Init+0x12d8>
    1a58:	e3a01037 	mov	r1, #55	; 0x37
    1a5c:	ebfffc88 	bl	c84 <NT35510_Reg>
 NT35510_Reg(0xD402, 0x00);
    1a60:	e59f095c 	ldr	r0, [pc, #2396]	; 23c4 <TFT_Init+0x12dc>
    1a64:	e3a01000 	mov	r1, #0
    1a68:	ebfffc85 	bl	c84 <NT35510_Reg>
 NT35510_Reg(0xD403, 0x52);
    1a6c:	e59f0954 	ldr	r0, [pc, #2388]	; 23c8 <TFT_Init+0x12e0>
    1a70:	e3a01052 	mov	r1, #82	; 0x52
    1a74:	ebfffc82 	bl	c84 <NT35510_Reg>
 NT35510_Reg(0xD404, 0x00);
    1a78:	e59f094c 	ldr	r0, [pc, #2380]	; 23cc <TFT_Init+0x12e4>
    1a7c:	e3a01000 	mov	r1, #0
    1a80:	ebfffc7f 	bl	c84 <NT35510_Reg>
 NT35510_Reg(0xD405, 0x7B);
    1a84:	e59f0944 	ldr	r0, [pc, #2372]	; 23d0 <TFT_Init+0x12e8>
    1a88:	e3a0107b 	mov	r1, #123	; 0x7b
    1a8c:	ebfffc7c 	bl	c84 <NT35510_Reg>
 NT35510_Reg(0xD406, 0x00);
    1a90:	e59f093c 	ldr	r0, [pc, #2364]	; 23d4 <TFT_Init+0x12ec>
    1a94:	e3a01000 	mov	r1, #0
    1a98:	ebfffc79 	bl	c84 <NT35510_Reg>
 NT35510_Reg(0xD407, 0x99);
    1a9c:	e59f0934 	ldr	r0, [pc, #2356]	; 23d8 <TFT_Init+0x12f0>
    1aa0:	e3a01099 	mov	r1, #153	; 0x99
    1aa4:	ebfffc76 	bl	c84 <NT35510_Reg>
 NT35510_Reg(0xD408, 0x00);
    1aa8:	e59f092c 	ldr	r0, [pc, #2348]	; 23dc <TFT_Init+0x12f4>
    1aac:	e3a01000 	mov	r1, #0
    1ab0:	ebfffc73 	bl	c84 <NT35510_Reg>
 NT35510_Reg(0xD409, 0xB1);
    1ab4:	e59f0924 	ldr	r0, [pc, #2340]	; 23e0 <TFT_Init+0x12f8>
    1ab8:	e3a010b1 	mov	r1, #177	; 0xb1
    1abc:	ebfffc70 	bl	c84 <NT35510_Reg>
 NT35510_Reg(0xD40A, 0x00);
    1ac0:	e59f091c 	ldr	r0, [pc, #2332]	; 23e4 <TFT_Init+0x12fc>
    1ac4:	e3a01000 	mov	r1, #0
    1ac8:	ebfffc6d 	bl	c84 <NT35510_Reg>
 NT35510_Reg(0xD40B, 0xD2);
    1acc:	e59f0914 	ldr	r0, [pc, #2324]	; 23e8 <TFT_Init+0x1300>
    1ad0:	e3a010d2 	mov	r1, #210	; 0xd2
    1ad4:	ebfffc6a 	bl	c84 <NT35510_Reg>
 NT35510_Reg(0xD40C, 0x00);
    1ad8:	e59f090c 	ldr	r0, [pc, #2316]	; 23ec <TFT_Init+0x1304>
    1adc:	e3a01000 	mov	r1, #0
    1ae0:	ebfffc67 	bl	c84 <NT35510_Reg>
 NT35510_Reg(0xD40D, 0xF6);
    1ae4:	e59f0904 	ldr	r0, [pc, #2308]	; 23f0 <TFT_Init+0x1308>
    1ae8:	e3a010f6 	mov	r1, #246	; 0xf6
    1aec:	ebfffc64 	bl	c84 <NT35510_Reg>
 NT35510_Reg(0xD40E, 0x01);
    1af0:	e59f08fc 	ldr	r0, [pc, #2300]	; 23f4 <TFT_Init+0x130c>
    1af4:	e3a01001 	mov	r1, #1
    1af8:	ebfffc61 	bl	c84 <NT35510_Reg>
 NT35510_Reg(0xD40F, 0x27);
    1afc:	e59f08f4 	ldr	r0, [pc, #2292]	; 23f8 <TFT_Init+0x1310>
    1b00:	e3a01027 	mov	r1, #39	; 0x27
    1b04:	ebfffc5e 	bl	c84 <NT35510_Reg>
 NT35510_Reg(0xD410, 0x01);
    1b08:	e59f08ec 	ldr	r0, [pc, #2284]	; 23fc <TFT_Init+0x1314>
    1b0c:	e3a01001 	mov	r1, #1
    1b10:	ebfffc5b 	bl	c84 <NT35510_Reg>
 NT35510_Reg(0xD411, 0x4E);
    1b14:	e59f08e4 	ldr	r0, [pc, #2276]	; 2400 <TFT_Init+0x1318>
    1b18:	e3a0104e 	mov	r1, #78	; 0x4e
    1b1c:	ebfffc58 	bl	c84 <NT35510_Reg>
 NT35510_Reg(0xD412, 0x01);
    1b20:	e59f08dc 	ldr	r0, [pc, #2268]	; 2404 <TFT_Init+0x131c>
    1b24:	e3a01001 	mov	r1, #1
    1b28:	ebfffc55 	bl	c84 <NT35510_Reg>
 NT35510_Reg(0xD413, 0x8C);
    1b2c:	e59f08d4 	ldr	r0, [pc, #2260]	; 2408 <TFT_Init+0x1320>
    1b30:	e3a0108c 	mov	r1, #140	; 0x8c
    1b34:	ebfffc52 	bl	c84 <NT35510_Reg>
 NT35510_Reg(0xD414, 0x01);
    1b38:	e59f08cc 	ldr	r0, [pc, #2252]	; 240c <TFT_Init+0x1324>
    1b3c:	e3a01001 	mov	r1, #1
    1b40:	ebfffc4f 	bl	c84 <NT35510_Reg>
 NT35510_Reg(0xD415, 0xBE);
    1b44:	e59f08c4 	ldr	r0, [pc, #2244]	; 2410 <TFT_Init+0x1328>
    1b48:	e3a010be 	mov	r1, #190	; 0xbe
    1b4c:	ebfffc4c 	bl	c84 <NT35510_Reg>
 NT35510_Reg(0xD416, 0x02);
    1b50:	e59f08bc 	ldr	r0, [pc, #2236]	; 2414 <TFT_Init+0x132c>
    1b54:	e3a01002 	mov	r1, #2
    1b58:	ebfffc49 	bl	c84 <NT35510_Reg>
 NT35510_Reg(0xD417, 0x0B);
    1b5c:	e59f08b4 	ldr	r0, [pc, #2228]	; 2418 <TFT_Init+0x1330>
    1b60:	e3a0100b 	mov	r1, #11
    1b64:	ebfffc46 	bl	c84 <NT35510_Reg>
 NT35510_Reg(0xD418, 0x02);
    1b68:	e59f08ac 	ldr	r0, [pc, #2220]	; 241c <TFT_Init+0x1334>
    1b6c:	e3a01002 	mov	r1, #2
    1b70:	ebfffc43 	bl	c84 <NT35510_Reg>
 NT35510_Reg(0xD419, 0x48);
    1b74:	e59f08a4 	ldr	r0, [pc, #2212]	; 2420 <TFT_Init+0x1338>
    1b78:	e3a01048 	mov	r1, #72	; 0x48
    1b7c:	ebfffc40 	bl	c84 <NT35510_Reg>
 NT35510_Reg(0xD41A, 0x02);
    1b80:	e59f089c 	ldr	r0, [pc, #2204]	; 2424 <TFT_Init+0x133c>
    1b84:	e3a01002 	mov	r1, #2
    1b88:	ebfffc3d 	bl	c84 <NT35510_Reg>
 NT35510_Reg(0xD41B, 0x4A);
    1b8c:	e59f0894 	ldr	r0, [pc, #2196]	; 2428 <TFT_Init+0x1340>
    1b90:	e3a0104a 	mov	r1, #74	; 0x4a
    1b94:	ebfffc3a 	bl	c84 <NT35510_Reg>
 NT35510_Reg(0xD41C, 0x02);
    1b98:	e59f088c 	ldr	r0, [pc, #2188]	; 242c <TFT_Init+0x1344>
    1b9c:	e3a01002 	mov	r1, #2
    1ba0:	ebfffc37 	bl	c84 <NT35510_Reg>
 NT35510_Reg(0xD41D, 0x7E);
    1ba4:	e59f0884 	ldr	r0, [pc, #2180]	; 2430 <TFT_Init+0x1348>
    1ba8:	e3a0107e 	mov	r1, #126	; 0x7e
    1bac:	ebfffc34 	bl	c84 <NT35510_Reg>
 NT35510_Reg(0xD41E, 0x02);
    1bb0:	e59f087c 	ldr	r0, [pc, #2172]	; 2434 <TFT_Init+0x134c>
    1bb4:	e3a01002 	mov	r1, #2
    1bb8:	ebfffc31 	bl	c84 <NT35510_Reg>
 NT35510_Reg(0xD41F, 0xBC);
    1bbc:	e59f0874 	ldr	r0, [pc, #2164]	; 2438 <TFT_Init+0x1350>
    1bc0:	e3a010bc 	mov	r1, #188	; 0xbc
    1bc4:	ebfffc2e 	bl	c84 <NT35510_Reg>
 FIOSET = (cmd    <<NT35510_DT);
 WR_OFF;

 WR_ON;
 RS_ON; // Data
 FIOCLR = (0xFFFF<<NT35510_DT);
    1bc8:	e59f3518 	ldr	r3, [pc, #1304]	; 20e8 <TFT_Init+0x1000>
    1bcc:	e59f6868 	ldr	r6, [pc, #2152]	; 243c <TFT_Init+0x1354>
// ---------------------------------------------------
void NT35510_Reg( unsigned short cmd, unsigned short data)
{
 RS_OFF; // Comando
 FIOCLR = (0xFFFF <<NT35510_DT);
 FIOSET = (cmd    <<NT35510_DT);
    1bd0:	e59fa868 	ldr	sl, [pc, #2152]	; 2440 <TFT_Init+0x1358>

 WR_ON;
 RS_ON; // Data
 FIOCLR = (0xFFFF<<NT35510_DT);
 FIOSET = (data  <<NT35510_DT);
 WR_OFF;
    1bd4:	e3a0cb02 	mov	ip, #2048	; 0x800
 FIOCLR = (0xFFFF <<NT35510_DT);
 FIOSET = (cmd    <<NT35510_DT);
 WR_OFF;

 WR_ON;
 RS_ON; // Data
    1bd8:	e3a09a02 	mov	r9, #8192	; 0x2000
// ---------------------------------------------------
void NT35510_Reg( unsigned short cmd, unsigned short data)
{
 RS_OFF; // Comando
 FIOCLR = (0xFFFF <<NT35510_DT);
 FIOSET = (cmd    <<NT35510_DT);
    1bdc:	e1a01003 	mov	r1, r3
 WR_OFF;

 WR_ON;
 RS_ON; // Data
 FIOCLR = (0xFFFF<<NT35510_DT);
 FIOSET = (data  <<NT35510_DT);
    1be0:	e3a0b802 	mov	fp, #131072	; 0x20000
 WR_ON;
}
// ---------------------------------------------------
void NT35510_Reg( unsigned short cmd, unsigned short data)
{
 RS_OFF; // Comando
    1be4:	e5019fe3 	str	r9, [r1, #-4067]	; 0xfe3
 FIOCLR = (0xFFFF <<NT35510_DT);
    1be8:	e5036fe3 	str	r6, [r3, #-4067]	; 0xfe3
 FIOSET = (cmd    <<NT35510_DT);
    1bec:	e503afe7 	str	sl, [r3, #-4071]	; 0xfe7
 WR_OFF;
    1bf0:	e501cfe3 	str	ip, [r1, #-4067]	; 0xfe3
// ---------------------------------------------------
void NT35510_Reg( unsigned short cmd, unsigned short data)
{
 RS_OFF; // Comando
 FIOCLR = (0xFFFF <<NT35510_DT);
 FIOSET = (cmd    <<NT35510_DT);
    1bf4:	e28aa801 	add	sl, sl, #65536	; 0x10000
 WR_OFF;

 WR_ON;
    1bf8:	e501cfe7 	str	ip, [r1, #-4071]	; 0xfe7
 RS_ON; // Data
    1bfc:	e5019fe7 	str	r9, [r1, #-4071]	; 0xfe7
 FIOCLR = (0xFFFF<<NT35510_DT);
    1c00:	e5036fe3 	str	r6, [r3, #-4067]	; 0xfe3
 FIOSET = (data  <<NT35510_DT);
    1c04:	e503bfe7 	str	fp, [r3, #-4071]	; 0xfe7
    1c08:	e3a0b8e1 	mov	fp, #14745600	; 0xe10000
 WR_OFF;
    1c0c:	e501cfe3 	str	ip, [r1, #-4067]	; 0xfe3

 WR_ON; 
    1c10:	e501cfe7 	str	ip, [r1, #-4071]	; 0xfe7
 WR_ON;
}
// ---------------------------------------------------
void NT35510_Reg( unsigned short cmd, unsigned short data)
{
 RS_OFF; // Comando
    1c14:	e5019fe3 	str	r9, [r1, #-4067]	; 0xfe3
 FIOCLR = (0xFFFF <<NT35510_DT);
    1c18:	e5036fe3 	str	r6, [r3, #-4067]	; 0xfe3
 FIOSET = (cmd    <<NT35510_DT);
    1c1c:	e503afe7 	str	sl, [r3, #-4071]	; 0xfe7
 WR_OFF;
    1c20:	e501cfe3 	str	ip, [r1, #-4067]	; 0xfe3
// ---------------------------------------------------
void NT35510_Reg( unsigned short cmd, unsigned short data)
{
 RS_OFF; // Comando
 FIOCLR = (0xFFFF <<NT35510_DT);
 FIOSET = (cmd    <<NT35510_DT);
    1c24:	e28aa801 	add	sl, sl, #65536	; 0x10000
 WR_OFF;

 WR_ON;
    1c28:	e501cfe7 	str	ip, [r1, #-4071]	; 0xfe7
 RS_ON; // Data
    1c2c:	e5019fe7 	str	r9, [r1, #-4071]	; 0xfe7
 FIOCLR = (0xFFFF<<NT35510_DT);
    1c30:	e5036fe3 	str	r6, [r3, #-4067]	; 0xfe3
 FIOSET = (data  <<NT35510_DT);
    1c34:	e503bfe7 	str	fp, [r3, #-4071]	; 0xfe7
    1c38:	e3a0b803 	mov	fp, #196608	; 0x30000
 WR_OFF;
    1c3c:	e501cfe3 	str	ip, [r1, #-4067]	; 0xfe3

 WR_ON; 
    1c40:	e501cfe7 	str	ip, [r1, #-4071]	; 0xfe7
 WR_ON;
}
// ---------------------------------------------------
void NT35510_Reg( unsigned short cmd, unsigned short data)
{
 RS_OFF; // Comando
    1c44:	e5019fe3 	str	r9, [r1, #-4067]	; 0xfe3
 FIOCLR = (0xFFFF <<NT35510_DT);
    1c48:	e5036fe3 	str	r6, [r3, #-4067]	; 0xfe3
 FIOSET = (cmd    <<NT35510_DT);
    1c4c:	e503afe7 	str	sl, [r3, #-4071]	; 0xfe7
 WR_OFF;
    1c50:	e501cfe3 	str	ip, [r1, #-4067]	; 0xfe3

 WR_ON;
    1c54:	e501cfe7 	str	ip, [r1, #-4071]	; 0xfe7
 RS_ON; // Data
    1c58:	e5019fe7 	str	r9, [r1, #-4071]	; 0xfe7
 FIOCLR = (0xFFFF<<NT35510_DT);
    1c5c:	e5036fe3 	str	r6, [r3, #-4067]	; 0xfe3
 FIOSET = (data  <<NT35510_DT);
    1c60:	e503bfe7 	str	fp, [r3, #-4071]	; 0xfe7
// ---------------------------------------------------
void NT35510_Reg( unsigned short cmd, unsigned short data)
{
 RS_OFF; // Comando
 FIOCLR = (0xFFFF <<NT35510_DT);
 FIOSET = (cmd    <<NT35510_DT);
    1c64:	e59fb7d8 	ldr	fp, [pc, #2008]	; 2444 <TFT_Init+0x135c>

 WR_ON;
 RS_ON; // Data
 FIOCLR = (0xFFFF<<NT35510_DT);
 FIOSET = (data  <<NT35510_DT);
 WR_OFF;
    1c68:	e501cfe3 	str	ip, [r1, #-4067]	; 0xfe3

 WR_ON; 
    1c6c:	e501cfe7 	str	ip, [r1, #-4071]	; 0xfe7
 WR_ON;
}
// ---------------------------------------------------
void NT35510_Reg( unsigned short cmd, unsigned short data)
{
 RS_OFF; // Comando
    1c70:	e5019fe3 	str	r9, [r1, #-4067]	; 0xfe3
 FIOCLR = (0xFFFF <<NT35510_DT);
    1c74:	e5036fe3 	str	r6, [r3, #-4067]	; 0xfe3
 FIOSET = (cmd    <<NT35510_DT);
    1c78:	e503bfe7 	str	fp, [r3, #-4071]	; 0xfe7
 WR_OFF;

 WR_ON;
 RS_ON; // Data
 FIOCLR = (0xFFFF<<NT35510_DT);
 FIOSET = (data  <<NT35510_DT);
    1c7c:	e3a0b601 	mov	fp, #1048576	; 0x100000
void NT35510_Reg( unsigned short cmd, unsigned short data)
{
 RS_OFF; // Comando
 FIOCLR = (0xFFFF <<NT35510_DT);
 FIOSET = (cmd    <<NT35510_DT);
 WR_OFF;
    1c80:	e501cfe3 	str	ip, [r1, #-4067]	; 0xfe3

 WR_ON;
    1c84:	e501cfe7 	str	ip, [r1, #-4071]	; 0xfe7
 RS_ON; // Data
    1c88:	e5019fe7 	str	r9, [r1, #-4071]	; 0xfe7
 FIOCLR = (0xFFFF<<NT35510_DT);
    1c8c:	e5036fe3 	str	r6, [r3, #-4067]	; 0xfe3
 FIOSET = (data  <<NT35510_DT);
    1c90:	e503bfe7 	str	fp, [r3, #-4071]	; 0xfe7
// ---------------------------------------------------
void NT35510_Reg( unsigned short cmd, unsigned short data)
{
 RS_OFF; // Comando
 FIOCLR = (0xFFFF <<NT35510_DT);
 FIOSET = (cmd    <<NT35510_DT);
    1c94:	e59fb7ac 	ldr	fp, [pc, #1964]	; 2448 <TFT_Init+0x1360>

 WR_ON;
 RS_ON; // Data
 FIOCLR = (0xFFFF<<NT35510_DT);
 FIOSET = (data  <<NT35510_DT);
 WR_OFF;
    1c98:	e501cfe3 	str	ip, [r1, #-4067]	; 0xfe3
 WR_OFF;

 WR_ON;
 RS_ON; // Data
 FIOCLR = (0xFFFF<<NT35510_DT);
 FIOSET = (data  <<NT35510_DT);
    1c9c:	e3a0a803 	mov	sl, #196608	; 0x30000
 WR_OFF;

 WR_ON; 
    1ca0:	e501cfe7 	str	ip, [r1, #-4071]	; 0xfe7
 WR_ON;
}
// ---------------------------------------------------
void NT35510_Reg( unsigned short cmd, unsigned short data)
{
 RS_OFF; // Comando
    1ca4:	e5019fe3 	str	r9, [r1, #-4067]	; 0xfe3
 FIOCLR = (0xFFFF <<NT35510_DT);
    1ca8:	e5036fe3 	str	r6, [r3, #-4067]	; 0xfe3
 FIOSET = (cmd    <<NT35510_DT);
    1cac:	e503bfe7 	str	fp, [r3, #-4071]	; 0xfe7
    1cb0:	e28bb801 	add	fp, fp, #65536	; 0x10000
 WR_OFF;
    1cb4:	e501cfe3 	str	ip, [r1, #-4067]	; 0xfe3

 WR_ON;
    1cb8:	e501cfe7 	str	ip, [r1, #-4071]	; 0xfe7
 RS_ON; // Data
    1cbc:	e5019fe7 	str	r9, [r1, #-4071]	; 0xfe7
 FIOCLR = (0xFFFF<<NT35510_DT);
    1cc0:	e5036fe3 	str	r6, [r3, #-4067]	; 0xfe3
 FIOSET = (data  <<NT35510_DT);
    1cc4:	e503afe7 	str	sl, [r3, #-4071]	; 0xfe7
 WR_OFF;
    1cc8:	e501cfe3 	str	ip, [r1, #-4067]	; 0xfe3

 WR_ON; 
    1ccc:	e501cfe7 	str	ip, [r1, #-4071]	; 0xfe7
 WR_ON;
}
// ---------------------------------------------------
void NT35510_Reg( unsigned short cmd, unsigned short data)
{
 RS_OFF; // Comando
    1cd0:	e5019fe3 	str	r9, [r1, #-4067]	; 0xfe3
 FIOCLR = (0xFFFF <<NT35510_DT);
    1cd4:	e5036fe3 	str	r6, [r3, #-4067]	; 0xfe3
 FIOSET = (cmd    <<NT35510_DT);
    1cd8:	e503bfe7 	str	fp, [r3, #-4071]	; 0xfe7
 WR_OFF;

 WR_ON;
 RS_ON; // Data
 FIOCLR = (0xFFFF<<NT35510_DT);
 FIOSET = (data  <<NT35510_DT);
    1cdc:	e3a0b831 	mov	fp, #3211264	; 0x310000
void NT35510_Reg( unsigned short cmd, unsigned short data)
{
 RS_OFF; // Comando
 FIOCLR = (0xFFFF <<NT35510_DT);
 FIOSET = (cmd    <<NT35510_DT);
 WR_OFF;
    1ce0:	e501cfe3 	str	ip, [r1, #-4067]	; 0xfe3

 WR_ON;
    1ce4:	e501cfe7 	str	ip, [r1, #-4071]	; 0xfe7
 RS_ON; // Data
    1ce8:	e5019fe7 	str	r9, [r1, #-4071]	; 0xfe7
 FIOCLR = (0xFFFF<<NT35510_DT);
    1cec:	e5036fe3 	str	r6, [r3, #-4067]	; 0xfe3
 FIOSET = (data  <<NT35510_DT);
    1cf0:	e503bfe7 	str	fp, [r3, #-4071]	; 0xfe7
// ---------------------------------------------------
void NT35510_Reg( unsigned short cmd, unsigned short data)
{
 RS_OFF; // Comando
 FIOCLR = (0xFFFF <<NT35510_DT);
 FIOSET = (cmd    <<NT35510_DT);
    1cf4:	e59fb750 	ldr	fp, [pc, #1872]	; 244c <TFT_Init+0x1364>

 WR_ON;
 RS_ON; // Data
 FIOCLR = (0xFFFF<<NT35510_DT);
 FIOSET = (data  <<NT35510_DT);
 WR_OFF;
    1cf8:	e501cfe3 	str	ip, [r1, #-4067]	; 0xfe3

 WR_ON; 
    1cfc:	e501cfe7 	str	ip, [r1, #-4071]	; 0xfe7
 WR_ON;
}
// ---------------------------------------------------
void NT35510_Reg( unsigned short cmd, unsigned short data)
{
 RS_OFF; // Comando
    1d00:	e5019fe3 	str	r9, [r1, #-4067]	; 0xfe3
 FIOCLR = (0xFFFF <<NT35510_DT);
    1d04:	e5036fe3 	str	r6, [r3, #-4067]	; 0xfe3
 FIOSET = (cmd    <<NT35510_DT);
    1d08:	e503bfe7 	str	fp, [r3, #-4071]	; 0xfe7
    1d0c:	e28bb801 	add	fp, fp, #65536	; 0x10000
 WR_OFF;
    1d10:	e501cfe3 	str	ip, [r1, #-4067]	; 0xfe3

 WR_ON;
    1d14:	e501cfe7 	str	ip, [r1, #-4071]	; 0xfe7
 RS_ON; // Data
    1d18:	e5019fe7 	str	r9, [r1, #-4071]	; 0xfe7
 FIOCLR = (0xFFFF<<NT35510_DT);
    1d1c:	e5036fe3 	str	r6, [r3, #-4067]	; 0xfe3
 FIOSET = (data  <<NT35510_DT);
    1d20:	e503afe7 	str	sl, [r3, #-4071]	; 0xfe7
 WR_OFF;
    1d24:	e501cfe3 	str	ip, [r1, #-4067]	; 0xfe3

 WR_ON; 
    1d28:	e501cfe7 	str	ip, [r1, #-4071]	; 0xfe7
 WR_ON;
}
// ---------------------------------------------------
void NT35510_Reg( unsigned short cmd, unsigned short data)
{
 RS_OFF; // Comando
    1d2c:	e5019fe3 	str	r9, [r1, #-4067]	; 0xfe3
 FIOCLR = (0xFFFF <<NT35510_DT);
    1d30:	e5036fe3 	str	r6, [r3, #-4067]	; 0xfe3
 FIOSET = (cmd    <<NT35510_DT);
    1d34:	e503bfe7 	str	fp, [r3, #-4071]	; 0xfe7
 WR_OFF;

 WR_ON;
 RS_ON; // Data
 FIOCLR = (0xFFFF<<NT35510_DT);
 FIOSET = (data  <<NT35510_DT);
    1d38:	e3a0b85a 	mov	fp, #5898240	; 0x5a0000
void NT35510_Reg( unsigned short cmd, unsigned short data)
{
 RS_OFF; // Comando
 FIOCLR = (0xFFFF <<NT35510_DT);
 FIOSET = (cmd    <<NT35510_DT);
 WR_OFF;
    1d3c:	e501cfe3 	str	ip, [r1, #-4067]	; 0xfe3

 WR_ON;
    1d40:	e501cfe7 	str	ip, [r1, #-4071]	; 0xfe7
 RS_ON; // Data
    1d44:	e5019fe7 	str	r9, [r1, #-4071]	; 0xfe7
 FIOCLR = (0xFFFF<<NT35510_DT);
    1d48:	e5036fe3 	str	r6, [r3, #-4067]	; 0xfe3
 FIOSET = (data  <<NT35510_DT);
    1d4c:	e503bfe7 	str	fp, [r3, #-4071]	; 0xfe7
// ---------------------------------------------------
void NT35510_Reg( unsigned short cmd, unsigned short data)
{
 RS_OFF; // Comando
 FIOCLR = (0xFFFF <<NT35510_DT);
 FIOSET = (cmd    <<NT35510_DT);
    1d50:	e59fb6f8 	ldr	fp, [pc, #1784]	; 2450 <TFT_Init+0x1368>

 WR_ON;
 RS_ON; // Data
 FIOCLR = (0xFFFF<<NT35510_DT);
 FIOSET = (data  <<NT35510_DT);
 WR_OFF;
    1d54:	e501cfe3 	str	ip, [r1, #-4067]	; 0xfe3

 WR_ON; 
    1d58:	e501cfe7 	str	ip, [r1, #-4071]	; 0xfe7
 WR_ON;
}
// ---------------------------------------------------
void NT35510_Reg( unsigned short cmd, unsigned short data)
{
 RS_OFF; // Comando
    1d5c:	e5019fe3 	str	r9, [r1, #-4067]	; 0xfe3
 FIOCLR = (0xFFFF <<NT35510_DT);
    1d60:	e5036fe3 	str	r6, [r3, #-4067]	; 0xfe3
 FIOSET = (cmd    <<NT35510_DT);
    1d64:	e503bfe7 	str	fp, [r3, #-4071]	; 0xfe7
    1d68:	e28bb801 	add	fp, fp, #65536	; 0x10000
 WR_OFF;
    1d6c:	e501cfe3 	str	ip, [r1, #-4067]	; 0xfe3

 WR_ON;
    1d70:	e501cfe7 	str	ip, [r1, #-4071]	; 0xfe7
 RS_ON; // Data
    1d74:	e5019fe7 	str	r9, [r1, #-4071]	; 0xfe7
 FIOCLR = (0xFFFF<<NT35510_DT);
    1d78:	e5036fe3 	str	r6, [r3, #-4067]	; 0xfe3
 FIOSET = (data  <<NT35510_DT);
    1d7c:	e503afe7 	str	sl, [r3, #-4071]	; 0xfe7
 WR_OFF;
    1d80:	e501cfe3 	str	ip, [r1, #-4067]	; 0xfe3
 WR_OFF;

 WR_ON;
 RS_ON; // Data
 FIOCLR = (0xFFFF<<NT35510_DT);
 FIOSET = (data  <<NT35510_DT);
    1d84:	e3a0a873 	mov	sl, #7536640	; 0x730000
 WR_OFF;

 WR_ON; 
    1d88:	e501cfe7 	str	ip, [r1, #-4071]	; 0xfe7
 WR_ON;
}
// ---------------------------------------------------
void NT35510_Reg( unsigned short cmd, unsigned short data)
{
 RS_OFF; // Comando
    1d8c:	e5019fe3 	str	r9, [r1, #-4067]	; 0xfe3
 FIOCLR = (0xFFFF <<NT35510_DT);
    1d90:	e5036fe3 	str	r6, [r3, #-4067]	; 0xfe3
 FIOSET = (cmd    <<NT35510_DT);
    1d94:	e503bfe7 	str	fp, [r3, #-4071]	; 0xfe7
    1d98:	e28bb801 	add	fp, fp, #65536	; 0x10000
 WR_OFF;
    1d9c:	e501cfe3 	str	ip, [r1, #-4067]	; 0xfe3

 WR_ON;
    1da0:	e501cfe7 	str	ip, [r1, #-4071]	; 0xfe7
 RS_ON; // Data
    1da4:	e5019fe7 	str	r9, [r1, #-4071]	; 0xfe7
 FIOCLR = (0xFFFF<<NT35510_DT);
    1da8:	e5036fe3 	str	r6, [r3, #-4067]	; 0xfe3
 FIOSET = (data  <<NT35510_DT);
    1dac:	e503afe7 	str	sl, [r3, #-4071]	; 0xfe7
 WR_OFF;
    1db0:	e501cfe3 	str	ip, [r1, #-4067]	; 0xfe3

 WR_ON; 
    1db4:	e501cfe7 	str	ip, [r1, #-4071]	; 0xfe7
 WR_ON;
}
// ---------------------------------------------------
void NT35510_Reg( unsigned short cmd, unsigned short data)
{
 RS_OFF; // Comando
    1db8:	e5019fe3 	str	r9, [r1, #-4067]	; 0xfe3
 FIOCLR = (0xFFFF <<NT35510_DT);
    1dbc:	e5036fe3 	str	r6, [r3, #-4067]	; 0xfe3
 FIOSET = (cmd    <<NT35510_DT);
    1dc0:	e503bfe7 	str	fp, [r3, #-4071]	; 0xfe7
 WR_OFF;

 WR_ON;
 RS_ON; // Data
 FIOCLR = (0xFFFF<<NT35510_DT);
 FIOSET = (data  <<NT35510_DT);
    1dc4:	e3a0b803 	mov	fp, #196608	; 0x30000
void NT35510_Reg( unsigned short cmd, unsigned short data)
{
 RS_OFF; // Comando
 FIOCLR = (0xFFFF <<NT35510_DT);
 FIOSET = (cmd    <<NT35510_DT);
 WR_OFF;
    1dc8:	e501cfe3 	str	ip, [r1, #-4067]	; 0xfe3

 WR_ON;
    1dcc:	e501cfe7 	str	ip, [r1, #-4071]	; 0xfe7
 RS_ON; // Data
    1dd0:	e5019fe7 	str	r9, [r1, #-4071]	; 0xfe7
 FIOCLR = (0xFFFF<<NT35510_DT);
    1dd4:	e5036fe3 	str	r6, [r3, #-4067]	; 0xfe3
 FIOSET = (data  <<NT35510_DT);
    1dd8:	e503bfe7 	str	fp, [r3, #-4071]	; 0xfe7
// ---------------------------------------------------
void NT35510_Reg( unsigned short cmd, unsigned short data)
{
 RS_OFF; // Comando
 FIOCLR = (0xFFFF <<NT35510_DT);
 FIOSET = (cmd    <<NT35510_DT);
    1ddc:	e59fb670 	ldr	fp, [pc, #1648]	; 2454 <TFT_Init+0x136c>

 WR_ON;
 RS_ON; // Data
 FIOCLR = (0xFFFF<<NT35510_DT);
 FIOSET = (data  <<NT35510_DT);
 WR_OFF;
    1de0:	e501cfe3 	str	ip, [r1, #-4067]	; 0xfe3
 WR_OFF;

 WR_ON;
 RS_ON; // Data
 FIOCLR = (0xFFFF<<NT35510_DT);
 FIOSET = (data  <<NT35510_DT);
    1de4:	e3a0a725 	mov	sl, #9699328	; 0x940000
 WR_OFF;

 WR_ON; 
    1de8:	e501cfe7 	str	ip, [r1, #-4071]	; 0xfe7
 WR_ON;
}
// ---------------------------------------------------
void NT35510_Reg( unsigned short cmd, unsigned short data)
{
 RS_OFF; // Comando
    1dec:	e5019fe3 	str	r9, [r1, #-4067]	; 0xfe3
 FIOCLR = (0xFFFF <<NT35510_DT);
    1df0:	e5036fe3 	str	r6, [r3, #-4067]	; 0xfe3
 FIOSET = (cmd    <<NT35510_DT);
    1df4:	e503bfe7 	str	fp, [r3, #-4071]	; 0xfe7
    1df8:	e28bb801 	add	fp, fp, #65536	; 0x10000
 WR_OFF;
    1dfc:	e501cfe3 	str	ip, [r1, #-4067]	; 0xfe3

 WR_ON;
    1e00:	e501cfe7 	str	ip, [r1, #-4071]	; 0xfe7
 RS_ON; // Data
    1e04:	e5019fe7 	str	r9, [r1, #-4071]	; 0xfe7
 FIOCLR = (0xFFFF<<NT35510_DT);
    1e08:	e5036fe3 	str	r6, [r3, #-4067]	; 0xfe3
 FIOSET = (data  <<NT35510_DT);
    1e0c:	e503afe7 	str	sl, [r3, #-4071]	; 0xfe7
 WR_OFF;
    1e10:	e501cfe3 	str	ip, [r1, #-4067]	; 0xfe3

 WR_ON; 
    1e14:	e501cfe7 	str	ip, [r1, #-4071]	; 0xfe7
 WR_ON;
}
// ---------------------------------------------------
void NT35510_Reg( unsigned short cmd, unsigned short data)
{
 RS_OFF; // Comando
    1e18:	e5019fe3 	str	r9, [r1, #-4067]	; 0xfe3
 FIOCLR = (0xFFFF <<NT35510_DT);
    1e1c:	e5036fe3 	str	r6, [r3, #-4067]	; 0xfe3
 FIOSET = (cmd    <<NT35510_DT);
    1e20:	e503bfe7 	str	fp, [r3, #-4071]	; 0xfe7
 WR_OFF;

 WR_ON;
 RS_ON; // Data
 FIOCLR = (0xFFFF<<NT35510_DT);
 FIOSET = (data  <<NT35510_DT);
    1e24:	e3a0b803 	mov	fp, #196608	; 0x30000
void NT35510_Reg( unsigned short cmd, unsigned short data)
{
 RS_OFF; // Comando
 FIOCLR = (0xFFFF <<NT35510_DT);
 FIOSET = (cmd    <<NT35510_DT);
 WR_OFF;
    1e28:	e501cfe3 	str	ip, [r1, #-4067]	; 0xfe3

 WR_ON;
    1e2c:	e501cfe7 	str	ip, [r1, #-4071]	; 0xfe7
 RS_ON; // Data
    1e30:	e5019fe7 	str	r9, [r1, #-4071]	; 0xfe7
 FIOCLR = (0xFFFF<<NT35510_DT);
    1e34:	e5036fe3 	str	r6, [r3, #-4067]	; 0xfe3
 FIOSET = (data  <<NT35510_DT);
    1e38:	e503bfe7 	str	fp, [r3, #-4071]	; 0xfe7
// ---------------------------------------------------
void NT35510_Reg( unsigned short cmd, unsigned short data)
{
 RS_OFF; // Comando
 FIOCLR = (0xFFFF <<NT35510_DT);
 FIOSET = (cmd    <<NT35510_DT);
    1e3c:	e59fb614 	ldr	fp, [pc, #1556]	; 2458 <TFT_Init+0x1370>

 WR_ON;
 RS_ON; // Data
 FIOCLR = (0xFFFF<<NT35510_DT);
 FIOSET = (data  <<NT35510_DT);
 WR_OFF;
    1e40:	e501cfe3 	str	ip, [r1, #-4067]	; 0xfe3
 WR_OFF;

 WR_ON;
 RS_ON; // Data
 FIOCLR = (0xFFFF<<NT35510_DT);
 FIOSET = (data  <<NT35510_DT);
    1e44:	e3a0a89f 	mov	sl, #10420224	; 0x9f0000
 WR_OFF;

 WR_ON; 
    1e48:	e501cfe7 	str	ip, [r1, #-4071]	; 0xfe7
 WR_ON;
}
// ---------------------------------------------------
void NT35510_Reg( unsigned short cmd, unsigned short data)
{
 RS_OFF; // Comando
    1e4c:	e5019fe3 	str	r9, [r1, #-4067]	; 0xfe3
 FIOCLR = (0xFFFF <<NT35510_DT);
    1e50:	e5036fe3 	str	r6, [r3, #-4067]	; 0xfe3
 FIOSET = (cmd    <<NT35510_DT);
    1e54:	e503bfe7 	str	fp, [r3, #-4071]	; 0xfe7
    1e58:	e28bb801 	add	fp, fp, #65536	; 0x10000
 WR_OFF;
    1e5c:	e501cfe3 	str	ip, [r1, #-4067]	; 0xfe3

 WR_ON;
    1e60:	e501cfe7 	str	ip, [r1, #-4071]	; 0xfe7
 RS_ON; // Data
    1e64:	e5019fe7 	str	r9, [r1, #-4071]	; 0xfe7
 FIOCLR = (0xFFFF<<NT35510_DT);
    1e68:	e5036fe3 	str	r6, [r3, #-4067]	; 0xfe3
 FIOSET = (data  <<NT35510_DT);
    1e6c:	e503afe7 	str	sl, [r3, #-4071]	; 0xfe7
 WR_OFF;
    1e70:	e501cfe3 	str	ip, [r1, #-4067]	; 0xfe3

 WR_ON; 
    1e74:	e501cfe7 	str	ip, [r1, #-4071]	; 0xfe7
 WR_ON;
}
// ---------------------------------------------------
void NT35510_Reg( unsigned short cmd, unsigned short data)
{
 RS_OFF; // Comando
    1e78:	e5019fe3 	str	r9, [r1, #-4067]	; 0xfe3
 FIOCLR = (0xFFFF <<NT35510_DT);
    1e7c:	e5036fe3 	str	r6, [r3, #-4067]	; 0xfe3
 FIOSET = (cmd    <<NT35510_DT);
    1e80:	e503bfe7 	str	fp, [r3, #-4071]	; 0xfe7
 WR_OFF;

 WR_ON;
 RS_ON; // Data
 FIOCLR = (0xFFFF<<NT35510_DT);
 FIOSET = (data  <<NT35510_DT);
    1e84:	e3a0b803 	mov	fp, #196608	; 0x30000
void NT35510_Reg( unsigned short cmd, unsigned short data)
{
 RS_OFF; // Comando
 FIOCLR = (0xFFFF <<NT35510_DT);
 FIOSET = (cmd    <<NT35510_DT);
 WR_OFF;
    1e88:	e501cfe3 	str	ip, [r1, #-4067]	; 0xfe3

 WR_ON;
    1e8c:	e501cfe7 	str	ip, [r1, #-4071]	; 0xfe7
 RS_ON; // Data
    1e90:	e5019fe7 	str	r9, [r1, #-4071]	; 0xfe7
 FIOCLR = (0xFFFF<<NT35510_DT);
    1e94:	e5036fe3 	str	r6, [r3, #-4067]	; 0xfe3
 FIOSET = (data  <<NT35510_DT);
    1e98:	e503bfe7 	str	fp, [r3, #-4071]	; 0xfe7
// ---------------------------------------------------
void NT35510_Reg( unsigned short cmd, unsigned short data)
{
 RS_OFF; // Comando
 FIOCLR = (0xFFFF <<NT35510_DT);
 FIOSET = (cmd    <<NT35510_DT);
    1e9c:	e59fb5b8 	ldr	fp, [pc, #1464]	; 245c <TFT_Init+0x1374>

 WR_ON;
 RS_ON; // Data
 FIOCLR = (0xFFFF<<NT35510_DT);
 FIOSET = (data  <<NT35510_DT);
 WR_OFF;
    1ea0:	e501cfe3 	str	ip, [r1, #-4067]	; 0xfe3
 WR_OFF;

 WR_ON;
 RS_ON; // Data
 FIOCLR = (0xFFFF<<NT35510_DT);
 FIOSET = (data  <<NT35510_DT);
    1ea4:	e3a0a8b3 	mov	sl, #11730944	; 0xb30000
 WR_OFF;

 WR_ON; 
    1ea8:	e501cfe7 	str	ip, [r1, #-4071]	; 0xfe7
 WR_ON;
}
// ---------------------------------------------------
void NT35510_Reg( unsigned short cmd, unsigned short data)
{
 RS_OFF; // Comando
    1eac:	e5019fe3 	str	r9, [r1, #-4067]	; 0xfe3
 FIOCLR = (0xFFFF <<NT35510_DT);
    1eb0:	e5036fe3 	str	r6, [r3, #-4067]	; 0xfe3
 FIOSET = (cmd    <<NT35510_DT);
    1eb4:	e503bfe7 	str	fp, [r3, #-4071]	; 0xfe7
    1eb8:	e28bb801 	add	fp, fp, #65536	; 0x10000
 WR_OFF;
    1ebc:	e501cfe3 	str	ip, [r1, #-4067]	; 0xfe3

 WR_ON;
    1ec0:	e501cfe7 	str	ip, [r1, #-4071]	; 0xfe7
 RS_ON; // Data
    1ec4:	e5019fe7 	str	r9, [r1, #-4071]	; 0xfe7
 FIOCLR = (0xFFFF<<NT35510_DT);
    1ec8:	e5036fe3 	str	r6, [r3, #-4067]	; 0xfe3
 FIOSET = (data  <<NT35510_DT);
    1ecc:	e503afe7 	str	sl, [r3, #-4071]	; 0xfe7
 WR_OFF;
    1ed0:	e501cfe3 	str	ip, [r1, #-4067]	; 0xfe3

 WR_ON; 
    1ed4:	e501cfe7 	str	ip, [r1, #-4071]	; 0xfe7
 WR_ON;
}
// ---------------------------------------------------
void NT35510_Reg( unsigned short cmd, unsigned short data)
{
 RS_OFF; // Comando
    1ed8:	e5019fe3 	str	r9, [r1, #-4067]	; 0xfe3
 FIOCLR = (0xFFFF <<NT35510_DT);
    1edc:	e5036fe3 	str	r6, [r3, #-4067]	; 0xfe3
 FIOSET = (cmd    <<NT35510_DT);
    1ee0:	e503bfe7 	str	fp, [r3, #-4071]	; 0xfe7
 WR_OFF;

 WR_ON;
 RS_ON; // Data
 FIOCLR = (0xFFFF<<NT35510_DT);
 FIOSET = (data  <<NT35510_DT);
    1ee4:	e3a0b803 	mov	fp, #196608	; 0x30000
void NT35510_Reg( unsigned short cmd, unsigned short data)
{
 RS_OFF; // Comando
 FIOCLR = (0xFFFF <<NT35510_DT);
 FIOSET = (cmd    <<NT35510_DT);
 WR_OFF;
    1ee8:	e501cfe3 	str	ip, [r1, #-4067]	; 0xfe3

 WR_ON;
    1eec:	e501cfe7 	str	ip, [r1, #-4071]	; 0xfe7
 RS_ON; // Data
    1ef0:	e5019fe7 	str	r9, [r1, #-4071]	; 0xfe7
 FIOCLR = (0xFFFF<<NT35510_DT);
    1ef4:	e5036fe3 	str	r6, [r3, #-4067]	; 0xfe3
 FIOSET = (data  <<NT35510_DT);
    1ef8:	e503bfe7 	str	fp, [r3, #-4071]	; 0xfe7
// ---------------------------------------------------
void NT35510_Reg( unsigned short cmd, unsigned short data)
{
 RS_OFF; // Comando
 FIOCLR = (0xFFFF <<NT35510_DT);
 FIOSET = (cmd    <<NT35510_DT);
    1efc:	e59fb55c 	ldr	fp, [pc, #1372]	; 2460 <TFT_Init+0x1378>

 WR_ON;
 RS_ON; // Data
 FIOCLR = (0xFFFF<<NT35510_DT);
 FIOSET = (data  <<NT35510_DT);
 WR_OFF;
    1f00:	e501cfe3 	str	ip, [r1, #-4067]	; 0xfe3
 WR_OFF;

 WR_ON;
 RS_ON; // Data
 FIOCLR = (0xFFFF<<NT35510_DT);
 FIOSET = (data  <<NT35510_DT);
    1f04:	e3a0a8b9 	mov	sl, #12124160	; 0xb90000
 WR_OFF;

 WR_ON; 
    1f08:	e501cfe7 	str	ip, [r1, #-4071]	; 0xfe7
 WR_ON;
}
// ---------------------------------------------------
void NT35510_Reg( unsigned short cmd, unsigned short data)
{
 RS_OFF; // Comando
    1f0c:	e5019fe3 	str	r9, [r1, #-4067]	; 0xfe3
 FIOCLR = (0xFFFF <<NT35510_DT);
    1f10:	e5036fe3 	str	r6, [r3, #-4067]	; 0xfe3
 FIOSET = (cmd    <<NT35510_DT);
    1f14:	e503bfe7 	str	fp, [r3, #-4071]	; 0xfe7
    1f18:	e28bb801 	add	fp, fp, #65536	; 0x10000
 WR_OFF;
    1f1c:	e501cfe3 	str	ip, [r1, #-4067]	; 0xfe3

 WR_ON;
    1f20:	e501cfe7 	str	ip, [r1, #-4071]	; 0xfe7
 RS_ON; // Data
    1f24:	e5019fe7 	str	r9, [r1, #-4071]	; 0xfe7
 FIOCLR = (0xFFFF<<NT35510_DT);
    1f28:	e5036fe3 	str	r6, [r3, #-4067]	; 0xfe3
 FIOSET = (data  <<NT35510_DT);
    1f2c:	e503afe7 	str	sl, [r3, #-4071]	; 0xfe7
 WR_OFF;
    1f30:	e501cfe3 	str	ip, [r1, #-4067]	; 0xfe3

 WR_ON; 
    1f34:	e501cfe7 	str	ip, [r1, #-4071]	; 0xfe7
 WR_ON;
}
// ---------------------------------------------------
void NT35510_Reg( unsigned short cmd, unsigned short data)
{
 RS_OFF; // Comando
    1f38:	e5019fe3 	str	r9, [r1, #-4067]	; 0xfe3
 FIOCLR = (0xFFFF <<NT35510_DT);
    1f3c:	e5036fe3 	str	r6, [r3, #-4067]	; 0xfe3
 FIOSET = (cmd    <<NT35510_DT);
    1f40:	e503bfe7 	str	fp, [r3, #-4071]	; 0xfe7
 WR_OFF;

 WR_ON;
 RS_ON; // Data
 FIOCLR = (0xFFFF<<NT35510_DT);
 FIOSET = (data  <<NT35510_DT);
    1f44:	e3a0b803 	mov	fp, #196608	; 0x30000
void NT35510_Reg( unsigned short cmd, unsigned short data)
{
 RS_OFF; // Comando
 FIOCLR = (0xFFFF <<NT35510_DT);
 FIOSET = (cmd    <<NT35510_DT);
 WR_OFF;
    1f48:	e501cfe3 	str	ip, [r1, #-4067]	; 0xfe3

 WR_ON;
    1f4c:	e501cfe7 	str	ip, [r1, #-4071]	; 0xfe7
 RS_ON; // Data
    1f50:	e5019fe7 	str	r9, [r1, #-4071]	; 0xfe7
 FIOCLR = (0xFFFF<<NT35510_DT);
    1f54:	e5036fe3 	str	r6, [r3, #-4067]	; 0xfe3
 FIOSET = (data  <<NT35510_DT);
    1f58:	e503bfe7 	str	fp, [r3, #-4071]	; 0xfe7
// ---------------------------------------------------
void NT35510_Reg( unsigned short cmd, unsigned short data)
{
 RS_OFF; // Comando
 FIOCLR = (0xFFFF <<NT35510_DT);
 FIOSET = (cmd    <<NT35510_DT);
    1f5c:	e59fb500 	ldr	fp, [pc, #1280]	; 2464 <TFT_Init+0x137c>

 WR_ON;
 RS_ON; // Data
 FIOCLR = (0xFFFF<<NT35510_DT);
 FIOSET = (data  <<NT35510_DT);
 WR_OFF;
    1f60:	e501cfe3 	str	ip, [r1, #-4067]	; 0xfe3
 WR_OFF;

 WR_ON;
 RS_ON; // Data
 FIOCLR = (0xFFFF<<NT35510_DT);
 FIOSET = (data  <<NT35510_DT);
    1f64:	e3a0a8c1 	mov	sl, #12648448	; 0xc10000
 WR_OFF;

 WR_ON; 
    1f68:	e501cfe7 	str	ip, [r1, #-4071]	; 0xfe7
 WR_ON;
}
// ---------------------------------------------------
void NT35510_Reg( unsigned short cmd, unsigned short data)
{
 RS_OFF; // Comando
    1f6c:	e5019fe3 	str	r9, [r1, #-4067]	; 0xfe3
 FIOCLR = (0xFFFF <<NT35510_DT);
    1f70:	e5036fe3 	str	r6, [r3, #-4067]	; 0xfe3
 FIOSET = (cmd    <<NT35510_DT);
    1f74:	e503bfe7 	str	fp, [r3, #-4071]	; 0xfe7
    1f78:	e3a0b4d5 	mov	fp, #-721420288	; 0xd5000000
 WR_OFF;
    1f7c:	e501cfe3 	str	ip, [r1, #-4067]	; 0xfe3

 WR_ON;
    1f80:	e501cfe7 	str	ip, [r1, #-4071]	; 0xfe7
 RS_ON; // Data
    1f84:	e5019fe7 	str	r9, [r1, #-4071]	; 0xfe7
 FIOCLR = (0xFFFF<<NT35510_DT);
    1f88:	e5036fe3 	str	r6, [r3, #-4067]	; 0xfe3
 FIOSET = (data  <<NT35510_DT);
    1f8c:	e503afe7 	str	sl, [r3, #-4071]	; 0xfe7
 WR_OFF;
    1f90:	e501cfe3 	str	ip, [r1, #-4067]	; 0xfe3

 WR_ON; 
    1f94:	e501cfe7 	str	ip, [r1, #-4071]	; 0xfe7
 WR_ON;
}
// ---------------------------------------------------
void NT35510_Reg( unsigned short cmd, unsigned short data)
{
 RS_OFF; // Comando
    1f98:	e5019fe3 	str	r9, [r1, #-4067]	; 0xfe3
 FIOCLR = (0xFFFF <<NT35510_DT);
    1f9c:	e5036fe3 	str	r6, [r3, #-4067]	; 0xfe3
 FIOSET = (cmd    <<NT35510_DT);
    1fa0:	e503bfe7 	str	fp, [r3, #-4071]	; 0xfe7
 WR_OFF;

 WR_ON;
 RS_ON; // Data
 FIOCLR = (0xFFFF<<NT35510_DT);
 FIOSET = (data  <<NT35510_DT);
    1fa4:	e3a0b000 	mov	fp, #0
void NT35510_Reg( unsigned short cmd, unsigned short data)
{
 RS_OFF; // Comando
 FIOCLR = (0xFFFF <<NT35510_DT);
 FIOSET = (cmd    <<NT35510_DT);
 WR_OFF;
    1fa8:	e501cfe3 	str	ip, [r1, #-4067]	; 0xfe3

 WR_ON;
    1fac:	e501cfe7 	str	ip, [r1, #-4071]	; 0xfe7
 RS_ON; // Data
    1fb0:	e5019fe7 	str	r9, [r1, #-4071]	; 0xfe7
 FIOCLR = (0xFFFF<<NT35510_DT);
    1fb4:	e5036fe3 	str	r6, [r3, #-4067]	; 0xfe3
 FIOSET = (data  <<NT35510_DT);
    1fb8:	e503bfe7 	str	fp, [r3, #-4071]	; 0xfe7
// ---------------------------------------------------
void NT35510_Reg( unsigned short cmd, unsigned short data)
{
 RS_OFF; // Comando
 FIOCLR = (0xFFFF <<NT35510_DT);
 FIOSET = (cmd    <<NT35510_DT);
    1fbc:	e59fb4a4 	ldr	fp, [pc, #1188]	; 2468 <TFT_Init+0x1380>

 WR_ON;
 RS_ON; // Data
 FIOCLR = (0xFFFF<<NT35510_DT);
 FIOSET = (data  <<NT35510_DT);
 WR_OFF;
    1fc0:	e501cfe3 	str	ip, [r1, #-4067]	; 0xfe3
 WR_OFF;

 WR_ON;
 RS_ON; // Data
 FIOCLR = (0xFFFF<<NT35510_DT);
 FIOSET = (data  <<NT35510_DT);
    1fc4:	e3a0a837 	mov	sl, #3604480	; 0x370000
 WR_OFF;

 WR_ON; 
    1fc8:	e501cfe7 	str	ip, [r1, #-4071]	; 0xfe7
 WR_ON;
}
// ---------------------------------------------------
void NT35510_Reg( unsigned short cmd, unsigned short data)
{
 RS_OFF; // Comando
    1fcc:	e5019fe3 	str	r9, [r1, #-4067]	; 0xfe3
 FIOCLR = (0xFFFF <<NT35510_DT);
    1fd0:	e5036fe3 	str	r6, [r3, #-4067]	; 0xfe3
 FIOSET = (cmd    <<NT35510_DT);
    1fd4:	e503bfe7 	str	fp, [r3, #-4071]	; 0xfe7
    1fd8:	e28bb801 	add	fp, fp, #65536	; 0x10000
 WR_OFF;
    1fdc:	e501cfe3 	str	ip, [r1, #-4067]	; 0xfe3

 WR_ON;
    1fe0:	e501cfe7 	str	ip, [r1, #-4071]	; 0xfe7
 RS_ON; // Data
    1fe4:	e5019fe7 	str	r9, [r1, #-4071]	; 0xfe7
 FIOCLR = (0xFFFF<<NT35510_DT);
    1fe8:	e5036fe3 	str	r6, [r3, #-4067]	; 0xfe3
 FIOSET = (data  <<NT35510_DT);
    1fec:	e503afe7 	str	sl, [r3, #-4071]	; 0xfe7
 WR_OFF;
    1ff0:	e501cfe3 	str	ip, [r1, #-4067]	; 0xfe3

 WR_ON; 
    1ff4:	e501cfe7 	str	ip, [r1, #-4071]	; 0xfe7
 WR_ON;
}
// ---------------------------------------------------
void NT35510_Reg( unsigned short cmd, unsigned short data)
{
 RS_OFF; // Comando
    1ff8:	e5019fe3 	str	r9, [r1, #-4067]	; 0xfe3
 FIOCLR = (0xFFFF <<NT35510_DT);
    1ffc:	e5036fe3 	str	r6, [r3, #-4067]	; 0xfe3
 FIOSET = (cmd    <<NT35510_DT);
    2000:	e503bfe7 	str	fp, [r3, #-4071]	; 0xfe7
 WR_OFF;

 WR_ON;
 RS_ON; // Data
 FIOCLR = (0xFFFF<<NT35510_DT);
 FIOSET = (data  <<NT35510_DT);
    2004:	e3a0b000 	mov	fp, #0
void NT35510_Reg( unsigned short cmd, unsigned short data)
{
 RS_OFF; // Comando
 FIOCLR = (0xFFFF <<NT35510_DT);
 FIOSET = (cmd    <<NT35510_DT);
 WR_OFF;
    2008:	e501cfe3 	str	ip, [r1, #-4067]	; 0xfe3

 WR_ON;
    200c:	e501cfe7 	str	ip, [r1, #-4071]	; 0xfe7
 RS_ON; // Data
    2010:	e5019fe7 	str	r9, [r1, #-4071]	; 0xfe7
 FIOCLR = (0xFFFF<<NT35510_DT);
    2014:	e5036fe3 	str	r6, [r3, #-4067]	; 0xfe3
 FIOSET = (data  <<NT35510_DT);
    2018:	e503bfe7 	str	fp, [r3, #-4071]	; 0xfe7
// ---------------------------------------------------
void NT35510_Reg( unsigned short cmd, unsigned short data)
{
 RS_OFF; // Comando
 FIOCLR = (0xFFFF <<NT35510_DT);
 FIOSET = (cmd    <<NT35510_DT);
    201c:	e59fb448 	ldr	fp, [pc, #1096]	; 246c <TFT_Init+0x1384>

 WR_ON;
 RS_ON; // Data
 FIOCLR = (0xFFFF<<NT35510_DT);
 FIOSET = (data  <<NT35510_DT);
 WR_OFF;
    2020:	e501cfe3 	str	ip, [r1, #-4067]	; 0xfe3
 WR_OFF;

 WR_ON;
 RS_ON; // Data
 FIOCLR = (0xFFFF<<NT35510_DT);
 FIOSET = (data  <<NT35510_DT);
    2024:	e3a0a852 	mov	sl, #5373952	; 0x520000
 WR_OFF;

 WR_ON; 
    2028:	e501cfe7 	str	ip, [r1, #-4071]	; 0xfe7
 WR_ON;
}
// ---------------------------------------------------
void NT35510_Reg( unsigned short cmd, unsigned short data)
{
 RS_OFF; // Comando
    202c:	e5019fe3 	str	r9, [r1, #-4067]	; 0xfe3
 FIOCLR = (0xFFFF <<NT35510_DT);
    2030:	e5036fe3 	str	r6, [r3, #-4067]	; 0xfe3
 FIOSET = (cmd    <<NT35510_DT);
    2034:	e503bfe7 	str	fp, [r3, #-4071]	; 0xfe7
    2038:	e28bb801 	add	fp, fp, #65536	; 0x10000
 WR_OFF;
    203c:	e501cfe3 	str	ip, [r1, #-4067]	; 0xfe3

 WR_ON;
    2040:	e501cfe7 	str	ip, [r1, #-4071]	; 0xfe7
 RS_ON; // Data
    2044:	e5019fe7 	str	r9, [r1, #-4071]	; 0xfe7
 FIOCLR = (0xFFFF<<NT35510_DT);
    2048:	e5036fe3 	str	r6, [r3, #-4067]	; 0xfe3
 FIOSET = (data  <<NT35510_DT);
    204c:	e503afe7 	str	sl, [r3, #-4071]	; 0xfe7
 WR_OFF;
    2050:	e501cfe3 	str	ip, [r1, #-4067]	; 0xfe3

 WR_ON; 
    2054:	e501cfe7 	str	ip, [r1, #-4071]	; 0xfe7
 WR_ON;
}
// ---------------------------------------------------
void NT35510_Reg( unsigned short cmd, unsigned short data)
{
 RS_OFF; // Comando
    2058:	e5019fe3 	str	r9, [r1, #-4067]	; 0xfe3
 FIOCLR = (0xFFFF <<NT35510_DT);
    205c:	e5036fe3 	str	r6, [r3, #-4067]	; 0xfe3
 FIOSET = (cmd    <<NT35510_DT);
    2060:	e503bfe7 	str	fp, [r3, #-4071]	; 0xfe7
 WR_OFF;

 WR_ON;
 RS_ON; // Data
 FIOCLR = (0xFFFF<<NT35510_DT);
 FIOSET = (data  <<NT35510_DT);
    2064:	e3a0b000 	mov	fp, #0
void NT35510_Reg( unsigned short cmd, unsigned short data)
{
 RS_OFF; // Comando
 FIOCLR = (0xFFFF <<NT35510_DT);
 FIOSET = (cmd    <<NT35510_DT);
 WR_OFF;
    2068:	e501cfe3 	str	ip, [r1, #-4067]	; 0xfe3

 WR_ON;
    206c:	e501cfe7 	str	ip, [r1, #-4071]	; 0xfe7
 RS_ON; // Data
    2070:	e5019fe7 	str	r9, [r1, #-4071]	; 0xfe7
 FIOCLR = (0xFFFF<<NT35510_DT);
    2074:	e5036fe3 	str	r6, [r3, #-4067]	; 0xfe3
 FIOSET = (data  <<NT35510_DT);
    2078:	e503bfe7 	str	fp, [r3, #-4071]	; 0xfe7
// ---------------------------------------------------
void NT35510_Reg( unsigned short cmd, unsigned short data)
{
 RS_OFF; // Comando
 FIOCLR = (0xFFFF <<NT35510_DT);
 FIOSET = (cmd    <<NT35510_DT);
    207c:	e59fb3ec 	ldr	fp, [pc, #1004]	; 2470 <TFT_Init+0x1388>

 WR_ON;
 RS_ON; // Data
 FIOCLR = (0xFFFF<<NT35510_DT);
 FIOSET = (data  <<NT35510_DT);
 WR_OFF;
    2080:	e501cfe3 	str	ip, [r1, #-4067]	; 0xfe3
 WR_OFF;

 WR_ON;
 RS_ON; // Data
 FIOCLR = (0xFFFF<<NT35510_DT);
 FIOSET = (data  <<NT35510_DT);
    2084:	e3a0a87b 	mov	sl, #8060928	; 0x7b0000
 WR_OFF;

 WR_ON; 
    2088:	e501cfe7 	str	ip, [r1, #-4071]	; 0xfe7
 WR_ON;
}
// ---------------------------------------------------
void NT35510_Reg( unsigned short cmd, unsigned short data)
{
 RS_OFF; // Comando
    208c:	e5019fe3 	str	r9, [r1, #-4067]	; 0xfe3
 FIOCLR = (0xFFFF <<NT35510_DT);
    2090:	e5036fe3 	str	r6, [r3, #-4067]	; 0xfe3
 FIOSET = (cmd    <<NT35510_DT);
    2094:	e503bfe7 	str	fp, [r3, #-4071]	; 0xfe7
    2098:	e28bb801 	add	fp, fp, #65536	; 0x10000
 WR_OFF;
    209c:	e501cfe3 	str	ip, [r1, #-4067]	; 0xfe3

 WR_ON;
    20a0:	e501cfe7 	str	ip, [r1, #-4071]	; 0xfe7
 RS_ON; // Data
    20a4:	e5019fe7 	str	r9, [r1, #-4071]	; 0xfe7
 FIOCLR = (0xFFFF<<NT35510_DT);
    20a8:	e5036fe3 	str	r6, [r3, #-4067]	; 0xfe3
 FIOSET = (data  <<NT35510_DT);
    20ac:	e503afe7 	str	sl, [r3, #-4071]	; 0xfe7
 WR_OFF;
    20b0:	e501cfe3 	str	ip, [r1, #-4067]	; 0xfe3

 WR_ON; 
    20b4:	e501cfe7 	str	ip, [r1, #-4071]	; 0xfe7
 WR_ON;
}
// ---------------------------------------------------
void NT35510_Reg( unsigned short cmd, unsigned short data)
{
 RS_OFF; // Comando
    20b8:	e5019fe3 	str	r9, [r1, #-4067]	; 0xfe3
 FIOCLR = (0xFFFF <<NT35510_DT);
    20bc:	e5036fe3 	str	r6, [r3, #-4067]	; 0xfe3
 FIOSET = (cmd    <<NT35510_DT);
    20c0:	e503bfe7 	str	fp, [r3, #-4071]	; 0xfe7
 WR_OFF;

 WR_ON;
 RS_ON; // Data
 FIOCLR = (0xFFFF<<NT35510_DT);
 FIOSET = (data  <<NT35510_DT);
    20c4:	e3a0b000 	mov	fp, #0
void NT35510_Reg( unsigned short cmd, unsigned short data)
{
 RS_OFF; // Comando
 FIOCLR = (0xFFFF <<NT35510_DT);
 FIOSET = (cmd    <<NT35510_DT);
 WR_OFF;
    20c8:	e501cfe3 	str	ip, [r1, #-4067]	; 0xfe3

 WR_ON;
    20cc:	e501cfe7 	str	ip, [r1, #-4071]	; 0xfe7
 RS_ON; // Data
    20d0:	e5019fe7 	str	r9, [r1, #-4071]	; 0xfe7
 FIOCLR = (0xFFFF<<NT35510_DT);
    20d4:	e5036fe3 	str	r6, [r3, #-4067]	; 0xfe3
 FIOSET = (data  <<NT35510_DT);
    20d8:	e503bfe7 	str	fp, [r3, #-4071]	; 0xfe7
// ---------------------------------------------------
void NT35510_Reg( unsigned short cmd, unsigned short data)
{
 RS_OFF; // Comando
 FIOCLR = (0xFFFF <<NT35510_DT);
 FIOSET = (cmd    <<NT35510_DT);
    20dc:	e59fb390 	ldr	fp, [pc, #912]	; 2474 <TFT_Init+0x138c>

 WR_ON;
 RS_ON; // Data
 FIOCLR = (0xFFFF<<NT35510_DT);
 FIOSET = (data  <<NT35510_DT);
 WR_OFF;
    20e0:	e501cfe3 	str	ip, [r1, #-4067]	; 0xfe3
    20e4:	ea000107 	b	2508 <TFT_Init+0x1420>
    20e8:	3fffcfff 	.word	0x3fffcfff
    20ec:	ffffb800 	.word	0xffffb800
    20f0:	0000f001 	.word	0x0000f001
    20f4:	0000f002 	.word	0x0000f002
    20f8:	0000f003 	.word	0x0000f003
    20fc:	0000f004 	.word	0x0000f004
    2100:	0000b601 	.word	0x0000b601
    2104:	0000b602 	.word	0x0000b602
    2108:	0000b001 	.word	0x0000b001
    210c:	0000b002 	.word	0x0000b002
    2110:	0000b701 	.word	0x0000b701
    2114:	0000b702 	.word	0x0000b702
    2118:	0000b101 	.word	0x0000b101
    211c:	0000b102 	.word	0x0000b102
    2120:	0000b801 	.word	0x0000b801
    2124:	0000b802 	.word	0x0000b802
    2128:	0000b901 	.word	0x0000b901
    212c:	0000b902 	.word	0x0000b902
    2130:	0000b301 	.word	0x0000b301
    2134:	0000b302 	.word	0x0000b302
    2138:	0000ba01 	.word	0x0000ba01
    213c:	0000ba02 	.word	0x0000ba02
    2140:	0000b501 	.word	0x0000b501
    2144:	0000b502 	.word	0x0000b502
    2148:	0000bc01 	.word	0x0000bc01
    214c:	0000bc02 	.word	0x0000bc02
    2150:	0000bd01 	.word	0x0000bd01
    2154:	0000bd02 	.word	0x0000bd02
    2158:	0000be01 	.word	0x0000be01
    215c:	0000d101 	.word	0x0000d101
    2160:	0000d102 	.word	0x0000d102
    2164:	0000d103 	.word	0x0000d103
    2168:	0000d104 	.word	0x0000d104
    216c:	0000d105 	.word	0x0000d105
    2170:	0000d106 	.word	0x0000d106
    2174:	0000d107 	.word	0x0000d107
    2178:	0000d108 	.word	0x0000d108
    217c:	0000d109 	.word	0x0000d109
    2180:	0000d10a 	.word	0x0000d10a
    2184:	0000d10b 	.word	0x0000d10b
    2188:	0000d10c 	.word	0x0000d10c
    218c:	0000d10d 	.word	0x0000d10d
    2190:	0000d10e 	.word	0x0000d10e
    2194:	0000d10f 	.word	0x0000d10f
    2198:	0000d110 	.word	0x0000d110
    219c:	0000d111 	.word	0x0000d111
    21a0:	0000d112 	.word	0x0000d112
    21a4:	0000d113 	.word	0x0000d113
    21a8:	0000d114 	.word	0x0000d114
    21ac:	0000d115 	.word	0x0000d115
    21b0:	0000d116 	.word	0x0000d116
    21b4:	0000d117 	.word	0x0000d117
    21b8:	0000d118 	.word	0x0000d118
    21bc:	0000d119 	.word	0x0000d119
    21c0:	0000d11a 	.word	0x0000d11a
    21c4:	0000d11b 	.word	0x0000d11b
    21c8:	0000d11c 	.word	0x0000d11c
    21cc:	0000d11d 	.word	0x0000d11d
    21d0:	0000d11e 	.word	0x0000d11e
    21d4:	0000d11f 	.word	0x0000d11f
    21d8:	0000d120 	.word	0x0000d120
    21dc:	0000d121 	.word	0x0000d121
    21e0:	0000d122 	.word	0x0000d122
    21e4:	0000d123 	.word	0x0000d123
    21e8:	0000d124 	.word	0x0000d124
    21ec:	0000d125 	.word	0x0000d125
    21f0:	0000d126 	.word	0x0000d126
    21f4:	0000d127 	.word	0x0000d127
    21f8:	0000d128 	.word	0x0000d128
    21fc:	0000d129 	.word	0x0000d129
    2200:	0000d12a 	.word	0x0000d12a
    2204:	0000d12b 	.word	0x0000d12b
    2208:	0000d12c 	.word	0x0000d12c
    220c:	0000d12d 	.word	0x0000d12d
    2210:	0000d12e 	.word	0x0000d12e
    2214:	0000d12f 	.word	0x0000d12f
    2218:	0000d130 	.word	0x0000d130
    221c:	0000d131 	.word	0x0000d131
    2220:	0000d132 	.word	0x0000d132
    2224:	0000d133 	.word	0x0000d133
    2228:	0000d201 	.word	0x0000d201
    222c:	0000d202 	.word	0x0000d202
    2230:	0000d203 	.word	0x0000d203
    2234:	0000d204 	.word	0x0000d204
    2238:	0000d205 	.word	0x0000d205
    223c:	0000d206 	.word	0x0000d206
    2240:	0000d207 	.word	0x0000d207
    2244:	0000d208 	.word	0x0000d208
    2248:	0000d209 	.word	0x0000d209
    224c:	0000d20a 	.word	0x0000d20a
    2250:	0000d20b 	.word	0x0000d20b
    2254:	0000d20c 	.word	0x0000d20c
    2258:	0000d20d 	.word	0x0000d20d
    225c:	0000d20e 	.word	0x0000d20e
    2260:	0000d20f 	.word	0x0000d20f
    2264:	0000d210 	.word	0x0000d210
    2268:	0000d211 	.word	0x0000d211
    226c:	0000d212 	.word	0x0000d212
    2270:	0000d213 	.word	0x0000d213
    2274:	0000d214 	.word	0x0000d214
    2278:	0000d215 	.word	0x0000d215
    227c:	0000d216 	.word	0x0000d216
    2280:	0000d217 	.word	0x0000d217
    2284:	0000d218 	.word	0x0000d218
    2288:	0000d219 	.word	0x0000d219
    228c:	0000d21a 	.word	0x0000d21a
    2290:	0000d21b 	.word	0x0000d21b
    2294:	0000d21c 	.word	0x0000d21c
    2298:	0000d21d 	.word	0x0000d21d
    229c:	0000d21e 	.word	0x0000d21e
    22a0:	0000d21f 	.word	0x0000d21f
    22a4:	0000d220 	.word	0x0000d220
    22a8:	0000d221 	.word	0x0000d221
    22ac:	0000d222 	.word	0x0000d222
    22b0:	0000d223 	.word	0x0000d223
    22b4:	0000d224 	.word	0x0000d224
    22b8:	0000d225 	.word	0x0000d225
    22bc:	0000d226 	.word	0x0000d226
    22c0:	0000d227 	.word	0x0000d227
    22c4:	0000d228 	.word	0x0000d228
    22c8:	0000d229 	.word	0x0000d229
    22cc:	0000d22a 	.word	0x0000d22a
    22d0:	0000d22b 	.word	0x0000d22b
    22d4:	0000d22c 	.word	0x0000d22c
    22d8:	0000d22d 	.word	0x0000d22d
    22dc:	0000d22e 	.word	0x0000d22e
    22e0:	0000d22f 	.word	0x0000d22f
    22e4:	0000d230 	.word	0x0000d230
    22e8:	0000d231 	.word	0x0000d231
    22ec:	0000d232 	.word	0x0000d232
    22f0:	0000d233 	.word	0x0000d233
    22f4:	0000d301 	.word	0x0000d301
    22f8:	0000d302 	.word	0x0000d302
    22fc:	0000d303 	.word	0x0000d303
    2300:	0000d304 	.word	0x0000d304
    2304:	0000d305 	.word	0x0000d305
    2308:	0000d306 	.word	0x0000d306
    230c:	0000d307 	.word	0x0000d307
    2310:	0000d308 	.word	0x0000d308
    2314:	0000d309 	.word	0x0000d309
    2318:	0000d30a 	.word	0x0000d30a
    231c:	0000d30b 	.word	0x0000d30b
    2320:	0000d30c 	.word	0x0000d30c
    2324:	0000d30d 	.word	0x0000d30d
    2328:	0000d30e 	.word	0x0000d30e
    232c:	0000d30f 	.word	0x0000d30f
    2330:	0000d310 	.word	0x0000d310
    2334:	0000d311 	.word	0x0000d311
    2338:	0000d312 	.word	0x0000d312
    233c:	0000d313 	.word	0x0000d313
    2340:	0000d314 	.word	0x0000d314
    2344:	0000d315 	.word	0x0000d315
    2348:	0000d316 	.word	0x0000d316
    234c:	0000d317 	.word	0x0000d317
    2350:	0000d318 	.word	0x0000d318
    2354:	0000d319 	.word	0x0000d319
    2358:	0000d31a 	.word	0x0000d31a
    235c:	0000d31b 	.word	0x0000d31b
    2360:	0000d31c 	.word	0x0000d31c
    2364:	0000d31d 	.word	0x0000d31d
    2368:	0000d31e 	.word	0x0000d31e
    236c:	0000d31f 	.word	0x0000d31f
    2370:	0000d320 	.word	0x0000d320
    2374:	0000d321 	.word	0x0000d321
    2378:	0000d322 	.word	0x0000d322
    237c:	0000d323 	.word	0x0000d323
    2380:	0000d324 	.word	0x0000d324
    2384:	0000d325 	.word	0x0000d325
    2388:	0000d326 	.word	0x0000d326
    238c:	0000d327 	.word	0x0000d327
    2390:	0000d328 	.word	0x0000d328
    2394:	0000d329 	.word	0x0000d329
    2398:	0000d32a 	.word	0x0000d32a
    239c:	0000d32b 	.word	0x0000d32b
    23a0:	0000d32c 	.word	0x0000d32c
    23a4:	0000d32d 	.word	0x0000d32d
    23a8:	0000d32e 	.word	0x0000d32e
    23ac:	0000d32f 	.word	0x0000d32f
    23b0:	0000d330 	.word	0x0000d330
    23b4:	0000d331 	.word	0x0000d331
    23b8:	0000d332 	.word	0x0000d332
    23bc:	0000d333 	.word	0x0000d333
    23c0:	0000d401 	.word	0x0000d401
    23c4:	0000d402 	.word	0x0000d402
    23c8:	0000d403 	.word	0x0000d403
    23cc:	0000d404 	.word	0x0000d404
    23d0:	0000d405 	.word	0x0000d405
    23d4:	0000d406 	.word	0x0000d406
    23d8:	0000d407 	.word	0x0000d407
    23dc:	0000d408 	.word	0x0000d408
    23e0:	0000d409 	.word	0x0000d409
    23e4:	0000d40a 	.word	0x0000d40a
    23e8:	0000d40b 	.word	0x0000d40b
    23ec:	0000d40c 	.word	0x0000d40c
    23f0:	0000d40d 	.word	0x0000d40d
    23f4:	0000d40e 	.word	0x0000d40e
    23f8:	0000d40f 	.word	0x0000d40f
    23fc:	0000d410 	.word	0x0000d410
    2400:	0000d411 	.word	0x0000d411
    2404:	0000d412 	.word	0x0000d412
    2408:	0000d413 	.word	0x0000d413
    240c:	0000d414 	.word	0x0000d414
    2410:	0000d415 	.word	0x0000d415
    2414:	0000d416 	.word	0x0000d416
    2418:	0000d417 	.word	0x0000d417
    241c:	0000d418 	.word	0x0000d418
    2420:	0000d419 	.word	0x0000d419
    2424:	0000d41a 	.word	0x0000d41a
    2428:	0000d41b 	.word	0x0000d41b
    242c:	0000d41c 	.word	0x0000d41c
    2430:	0000d41d 	.word	0x0000d41d
    2434:	0000d41e 	.word	0x0000d41e
    2438:	0000d41f 	.word	0x0000d41f
    243c:	ffff0000 	.word	0xffff0000
    2440:	d4200000 	.word	0xd4200000
    2444:	d4230000 	.word	0xd4230000
    2448:	d4240000 	.word	0xd4240000
    244c:	d4260000 	.word	0xd4260000
    2450:	d4280000 	.word	0xd4280000
    2454:	d42b0000 	.word	0xd42b0000
    2458:	d42d0000 	.word	0xd42d0000
    245c:	d42f0000 	.word	0xd42f0000
    2460:	d4310000 	.word	0xd4310000
    2464:	d4330000 	.word	0xd4330000
    2468:	d5010000 	.word	0xd5010000
    246c:	d5030000 	.word	0xd5030000
    2470:	d5050000 	.word	0xd5050000
    2474:	d5070000 	.word	0xd5070000
    2478:	d5090000 	.word	0xd5090000
    247c:	d50b0000 	.word	0xd50b0000
    2480:	d50d0000 	.word	0xd50d0000
    2484:	d50f0000 	.word	0xd50f0000
    2488:	d5110000 	.word	0xd5110000
    248c:	d5120000 	.word	0xd5120000
    2490:	d5160000 	.word	0xd5160000
    2494:	d5180000 	.word	0xd5180000
    2498:	d51a0000 	.word	0xd51a0000
    249c:	d51c0000 	.word	0xd51c0000
    24a0:	d51e0000 	.word	0xd51e0000
    24a4:	d5200000 	.word	0xd5200000
    24a8:	d5220000 	.word	0xd5220000
    24ac:	d5230000 	.word	0xd5230000
    24b0:	d5240000 	.word	0xd5240000
    24b4:	d5260000 	.word	0xd5260000
    24b8:	d52a0000 	.word	0xd52a0000
    24bc:	d52e0000 	.word	0xd52e0000
    24c0:	d5320000 	.word	0xd5320000
    24c4:	d5330000 	.word	0xd5330000
    24c8:	d6020000 	.word	0xd6020000
    24cc:	d6060000 	.word	0xd6060000
    24d0:	d60b0000 	.word	0xd60b0000
    24d4:	d60e0000 	.word	0xd60e0000
    24d8:	d6120000 	.word	0xd6120000
    24dc:	d6160000 	.word	0xd6160000
    24e0:	d6170000 	.word	0xd6170000
    24e4:	d6180000 	.word	0xd6180000
    24e8:	d61a0000 	.word	0xd61a0000
    24ec:	d61c0000 	.word	0xd61c0000
    24f0:	d61e0000 	.word	0xd61e0000
    24f4:	d6200000 	.word	0xd6200000
    24f8:	d6220000 	.word	0xd6220000
    24fc:	d6240000 	.word	0xd6240000
    2500:	d6280000 	.word	0xd6280000
    2504:	d62a0000 	.word	0xd62a0000
 WR_OFF;

 WR_ON;
 RS_ON; // Data
 FIOCLR = (0xFFFF<<NT35510_DT);
 FIOSET = (data  <<NT35510_DT);
    2508:	e3a0a899 	mov	sl, #10027008	; 0x990000
 WR_OFF;

 WR_ON; 
    250c:	e501cfe7 	str	ip, [r1, #-4071]	; 0xfe7
 WR_ON;
}
// ---------------------------------------------------
void NT35510_Reg( unsigned short cmd, unsigned short data)
{
 RS_OFF; // Comando
    2510:	e5019fe3 	str	r9, [r1, #-4067]	; 0xfe3
 FIOCLR = (0xFFFF <<NT35510_DT);
    2514:	e5036fe3 	str	r6, [r3, #-4067]	; 0xfe3
 FIOSET = (cmd    <<NT35510_DT);
    2518:	e503bfe7 	str	fp, [r3, #-4071]	; 0xfe7
    251c:	e28bb801 	add	fp, fp, #65536	; 0x10000
 WR_OFF;
    2520:	e501cfe3 	str	ip, [r1, #-4067]	; 0xfe3

 WR_ON;
    2524:	e501cfe7 	str	ip, [r1, #-4071]	; 0xfe7
 RS_ON; // Data
    2528:	e5019fe7 	str	r9, [r1, #-4071]	; 0xfe7
 FIOCLR = (0xFFFF<<NT35510_DT);
    252c:	e5036fe3 	str	r6, [r3, #-4067]	; 0xfe3
 FIOSET = (data  <<NT35510_DT);
    2530:	e503afe7 	str	sl, [r3, #-4071]	; 0xfe7
 WR_OFF;
    2534:	e501cfe3 	str	ip, [r1, #-4067]	; 0xfe3

 WR_ON; 
    2538:	e501cfe7 	str	ip, [r1, #-4071]	; 0xfe7
 WR_ON;
}
// ---------------------------------------------------
void NT35510_Reg( unsigned short cmd, unsigned short data)
{
 RS_OFF; // Comando
    253c:	e5019fe3 	str	r9, [r1, #-4067]	; 0xfe3
 FIOCLR = (0xFFFF <<NT35510_DT);
    2540:	e5036fe3 	str	r6, [r3, #-4067]	; 0xfe3
 FIOSET = (cmd    <<NT35510_DT);
    2544:	e503bfe7 	str	fp, [r3, #-4071]	; 0xfe7
 WR_OFF;

 WR_ON;
 RS_ON; // Data
 FIOCLR = (0xFFFF<<NT35510_DT);
 FIOSET = (data  <<NT35510_DT);
    2548:	e3a0b000 	mov	fp, #0
void NT35510_Reg( unsigned short cmd, unsigned short data)
{
 RS_OFF; // Comando
 FIOCLR = (0xFFFF <<NT35510_DT);
 FIOSET = (cmd    <<NT35510_DT);
 WR_OFF;
    254c:	e501cfe3 	str	ip, [r1, #-4067]	; 0xfe3

 WR_ON;
    2550:	e501cfe7 	str	ip, [r1, #-4071]	; 0xfe7
 RS_ON; // Data
    2554:	e5019fe7 	str	r9, [r1, #-4071]	; 0xfe7
 FIOCLR = (0xFFFF<<NT35510_DT);
    2558:	e5036fe3 	str	r6, [r3, #-4067]	; 0xfe3
 FIOSET = (data  <<NT35510_DT);
    255c:	e503bfe7 	str	fp, [r3, #-4071]	; 0xfe7
// ---------------------------------------------------
void NT35510_Reg( unsigned short cmd, unsigned short data)
{
 RS_OFF; // Comando
 FIOCLR = (0xFFFF <<NT35510_DT);
 FIOSET = (cmd    <<NT35510_DT);
    2560:	e51fb0f0 	ldr	fp, [pc, #-240]	; 2478 <TFT_Init+0x1390>

 WR_ON;
 RS_ON; // Data
 FIOCLR = (0xFFFF<<NT35510_DT);
 FIOSET = (data  <<NT35510_DT);
 WR_OFF;
    2564:	e501cfe3 	str	ip, [r1, #-4067]	; 0xfe3
 WR_OFF;

 WR_ON;
 RS_ON; // Data
 FIOCLR = (0xFFFF<<NT35510_DT);
 FIOSET = (data  <<NT35510_DT);
    2568:	e3a0a8b1 	mov	sl, #11599872	; 0xb10000
 WR_OFF;

 WR_ON; 
    256c:	e501cfe7 	str	ip, [r1, #-4071]	; 0xfe7
 WR_ON;
}
// ---------------------------------------------------
void NT35510_Reg( unsigned short cmd, unsigned short data)
{
 RS_OFF; // Comando
    2570:	e5019fe3 	str	r9, [r1, #-4067]	; 0xfe3
 FIOCLR = (0xFFFF <<NT35510_DT);
    2574:	e5036fe3 	str	r6, [r3, #-4067]	; 0xfe3
 FIOSET = (cmd    <<NT35510_DT);
    2578:	e503bfe7 	str	fp, [r3, #-4071]	; 0xfe7
    257c:	e28bb801 	add	fp, fp, #65536	; 0x10000
 WR_OFF;
    2580:	e501cfe3 	str	ip, [r1, #-4067]	; 0xfe3

 WR_ON;
    2584:	e501cfe7 	str	ip, [r1, #-4071]	; 0xfe7
 RS_ON; // Data
    2588:	e5019fe7 	str	r9, [r1, #-4071]	; 0xfe7
 FIOCLR = (0xFFFF<<NT35510_DT);
    258c:	e5036fe3 	str	r6, [r3, #-4067]	; 0xfe3
 FIOSET = (data  <<NT35510_DT);
    2590:	e503afe7 	str	sl, [r3, #-4071]	; 0xfe7
 WR_OFF;
    2594:	e501cfe3 	str	ip, [r1, #-4067]	; 0xfe3

 WR_ON; 
    2598:	e501cfe7 	str	ip, [r1, #-4071]	; 0xfe7
 WR_ON;
}
// ---------------------------------------------------
void NT35510_Reg( unsigned short cmd, unsigned short data)
{
 RS_OFF; // Comando
    259c:	e5019fe3 	str	r9, [r1, #-4067]	; 0xfe3
 FIOCLR = (0xFFFF <<NT35510_DT);
    25a0:	e5036fe3 	str	r6, [r3, #-4067]	; 0xfe3
 FIOSET = (cmd    <<NT35510_DT);
    25a4:	e503bfe7 	str	fp, [r3, #-4071]	; 0xfe7
 WR_OFF;

 WR_ON;
 RS_ON; // Data
 FIOCLR = (0xFFFF<<NT35510_DT);
 FIOSET = (data  <<NT35510_DT);
    25a8:	e3a0b000 	mov	fp, #0
void NT35510_Reg( unsigned short cmd, unsigned short data)
{
 RS_OFF; // Comando
 FIOCLR = (0xFFFF <<NT35510_DT);
 FIOSET = (cmd    <<NT35510_DT);
 WR_OFF;
    25ac:	e501cfe3 	str	ip, [r1, #-4067]	; 0xfe3

 WR_ON;
    25b0:	e501cfe7 	str	ip, [r1, #-4071]	; 0xfe7
 RS_ON; // Data
    25b4:	e5019fe7 	str	r9, [r1, #-4071]	; 0xfe7
 FIOCLR = (0xFFFF<<NT35510_DT);
    25b8:	e5036fe3 	str	r6, [r3, #-4067]	; 0xfe3
 FIOSET = (data  <<NT35510_DT);
    25bc:	e503bfe7 	str	fp, [r3, #-4071]	; 0xfe7
// ---------------------------------------------------
void NT35510_Reg( unsigned short cmd, unsigned short data)
{
 RS_OFF; // Comando
 FIOCLR = (0xFFFF <<NT35510_DT);
 FIOSET = (cmd    <<NT35510_DT);
    25c0:	e51fb14c 	ldr	fp, [pc, #-332]	; 247c <TFT_Init+0x1394>

 WR_ON;
 RS_ON; // Data
 FIOCLR = (0xFFFF<<NT35510_DT);
 FIOSET = (data  <<NT35510_DT);
 WR_OFF;
    25c4:	e501cfe3 	str	ip, [r1, #-4067]	; 0xfe3
 WR_OFF;

 WR_ON;
 RS_ON; // Data
 FIOCLR = (0xFFFF<<NT35510_DT);
 FIOSET = (data  <<NT35510_DT);
    25c8:	e3a0a8d2 	mov	sl, #13762560	; 0xd20000
 WR_OFF;

 WR_ON; 
    25cc:	e501cfe7 	str	ip, [r1, #-4071]	; 0xfe7
 WR_ON;
}
// ---------------------------------------------------
void NT35510_Reg( unsigned short cmd, unsigned short data)
{
 RS_OFF; // Comando
    25d0:	e5019fe3 	str	r9, [r1, #-4067]	; 0xfe3
 FIOCLR = (0xFFFF <<NT35510_DT);
    25d4:	e5036fe3 	str	r6, [r3, #-4067]	; 0xfe3
 FIOSET = (cmd    <<NT35510_DT);
    25d8:	e503bfe7 	str	fp, [r3, #-4071]	; 0xfe7
    25dc:	e28bb801 	add	fp, fp, #65536	; 0x10000
 WR_OFF;
    25e0:	e501cfe3 	str	ip, [r1, #-4067]	; 0xfe3

 WR_ON;
    25e4:	e501cfe7 	str	ip, [r1, #-4071]	; 0xfe7
 RS_ON; // Data
    25e8:	e5019fe7 	str	r9, [r1, #-4071]	; 0xfe7
 FIOCLR = (0xFFFF<<NT35510_DT);
    25ec:	e5036fe3 	str	r6, [r3, #-4067]	; 0xfe3
 FIOSET = (data  <<NT35510_DT);
    25f0:	e503afe7 	str	sl, [r3, #-4071]	; 0xfe7
 WR_OFF;
    25f4:	e501cfe3 	str	ip, [r1, #-4067]	; 0xfe3

 WR_ON; 
    25f8:	e501cfe7 	str	ip, [r1, #-4071]	; 0xfe7
 WR_ON;
}
// ---------------------------------------------------
void NT35510_Reg( unsigned short cmd, unsigned short data)
{
 RS_OFF; // Comando
    25fc:	e5019fe3 	str	r9, [r1, #-4067]	; 0xfe3
 FIOCLR = (0xFFFF <<NT35510_DT);
    2600:	e5036fe3 	str	r6, [r3, #-4067]	; 0xfe3
 FIOSET = (cmd    <<NT35510_DT);
    2604:	e503bfe7 	str	fp, [r3, #-4071]	; 0xfe7
 WR_OFF;

 WR_ON;
 RS_ON; // Data
 FIOCLR = (0xFFFF<<NT35510_DT);
 FIOSET = (data  <<NT35510_DT);
    2608:	e3a0b000 	mov	fp, #0
void NT35510_Reg( unsigned short cmd, unsigned short data)
{
 RS_OFF; // Comando
 FIOCLR = (0xFFFF <<NT35510_DT);
 FIOSET = (cmd    <<NT35510_DT);
 WR_OFF;
    260c:	e501cfe3 	str	ip, [r1, #-4067]	; 0xfe3

 WR_ON;
    2610:	e501cfe7 	str	ip, [r1, #-4071]	; 0xfe7
 RS_ON; // Data
    2614:	e5019fe7 	str	r9, [r1, #-4071]	; 0xfe7
 FIOCLR = (0xFFFF<<NT35510_DT);
    2618:	e5036fe3 	str	r6, [r3, #-4067]	; 0xfe3
 FIOSET = (data  <<NT35510_DT);
    261c:	e503bfe7 	str	fp, [r3, #-4071]	; 0xfe7
// ---------------------------------------------------
void NT35510_Reg( unsigned short cmd, unsigned short data)
{
 RS_OFF; // Comando
 FIOCLR = (0xFFFF <<NT35510_DT);
 FIOSET = (cmd    <<NT35510_DT);
    2620:	e51fb1a8 	ldr	fp, [pc, #-424]	; 2480 <TFT_Init+0x1398>

 WR_ON;
 RS_ON; // Data
 FIOCLR = (0xFFFF<<NT35510_DT);
 FIOSET = (data  <<NT35510_DT);
 WR_OFF;
    2624:	e501cfe3 	str	ip, [r1, #-4067]	; 0xfe3
 WR_OFF;

 WR_ON;
 RS_ON; // Data
 FIOCLR = (0xFFFF<<NT35510_DT);
 FIOSET = (data  <<NT35510_DT);
    2628:	e3a0a8f6 	mov	sl, #16121856	; 0xf60000
 WR_OFF;

 WR_ON; 
    262c:	e501cfe7 	str	ip, [r1, #-4071]	; 0xfe7
 WR_ON;
}
// ---------------------------------------------------
void NT35510_Reg( unsigned short cmd, unsigned short data)
{
 RS_OFF; // Comando
    2630:	e5019fe3 	str	r9, [r1, #-4067]	; 0xfe3
 FIOCLR = (0xFFFF <<NT35510_DT);
    2634:	e5036fe3 	str	r6, [r3, #-4067]	; 0xfe3
 FIOSET = (cmd    <<NT35510_DT);
    2638:	e503bfe7 	str	fp, [r3, #-4071]	; 0xfe7
    263c:	e28bb801 	add	fp, fp, #65536	; 0x10000
 WR_OFF;
    2640:	e501cfe3 	str	ip, [r1, #-4067]	; 0xfe3

 WR_ON;
    2644:	e501cfe7 	str	ip, [r1, #-4071]	; 0xfe7
 RS_ON; // Data
    2648:	e5019fe7 	str	r9, [r1, #-4071]	; 0xfe7
 FIOCLR = (0xFFFF<<NT35510_DT);
    264c:	e5036fe3 	str	r6, [r3, #-4067]	; 0xfe3
 FIOSET = (data  <<NT35510_DT);
    2650:	e503afe7 	str	sl, [r3, #-4071]	; 0xfe7
 WR_OFF;
    2654:	e501cfe3 	str	ip, [r1, #-4067]	; 0xfe3

 WR_ON; 
    2658:	e501cfe7 	str	ip, [r1, #-4071]	; 0xfe7
 WR_ON;
}
// ---------------------------------------------------
void NT35510_Reg( unsigned short cmd, unsigned short data)
{
 RS_OFF; // Comando
    265c:	e5019fe3 	str	r9, [r1, #-4067]	; 0xfe3
 FIOCLR = (0xFFFF <<NT35510_DT);
    2660:	e5036fe3 	str	r6, [r3, #-4067]	; 0xfe3
 FIOSET = (cmd    <<NT35510_DT);
    2664:	e503bfe7 	str	fp, [r3, #-4071]	; 0xfe7
 WR_OFF;

 WR_ON;
 RS_ON; // Data
 FIOCLR = (0xFFFF<<NT35510_DT);
 FIOSET = (data  <<NT35510_DT);
    2668:	e3a0b801 	mov	fp, #65536	; 0x10000
void NT35510_Reg( unsigned short cmd, unsigned short data)
{
 RS_OFF; // Comando
 FIOCLR = (0xFFFF <<NT35510_DT);
 FIOSET = (cmd    <<NT35510_DT);
 WR_OFF;
    266c:	e501cfe3 	str	ip, [r1, #-4067]	; 0xfe3

 WR_ON;
    2670:	e501cfe7 	str	ip, [r1, #-4071]	; 0xfe7
 RS_ON; // Data
    2674:	e5019fe7 	str	r9, [r1, #-4071]	; 0xfe7
 FIOCLR = (0xFFFF<<NT35510_DT);
    2678:	e5036fe3 	str	r6, [r3, #-4067]	; 0xfe3
 FIOSET = (data  <<NT35510_DT);
    267c:	e503bfe7 	str	fp, [r3, #-4071]	; 0xfe7
// ---------------------------------------------------
void NT35510_Reg( unsigned short cmd, unsigned short data)
{
 RS_OFF; // Comando
 FIOCLR = (0xFFFF <<NT35510_DT);
 FIOSET = (cmd    <<NT35510_DT);
    2680:	e51fb204 	ldr	fp, [pc, #-516]	; 2484 <TFT_Init+0x139c>

 WR_ON;
 RS_ON; // Data
 FIOCLR = (0xFFFF<<NT35510_DT);
 FIOSET = (data  <<NT35510_DT);
 WR_OFF;
    2684:	e501cfe3 	str	ip, [r1, #-4067]	; 0xfe3
 WR_OFF;

 WR_ON;
 RS_ON; // Data
 FIOCLR = (0xFFFF<<NT35510_DT);
 FIOSET = (data  <<NT35510_DT);
    2688:	e3a0a827 	mov	sl, #2555904	; 0x270000
 WR_OFF;

 WR_ON; 
    268c:	e501cfe7 	str	ip, [r1, #-4071]	; 0xfe7
 WR_ON;
}
// ---------------------------------------------------
void NT35510_Reg( unsigned short cmd, unsigned short data)
{
 RS_OFF; // Comando
    2690:	e5019fe3 	str	r9, [r1, #-4067]	; 0xfe3
 FIOCLR = (0xFFFF <<NT35510_DT);
    2694:	e5036fe3 	str	r6, [r3, #-4067]	; 0xfe3
 FIOSET = (cmd    <<NT35510_DT);
    2698:	e503bfe7 	str	fp, [r3, #-4071]	; 0xfe7
    269c:	e28bb801 	add	fp, fp, #65536	; 0x10000
 WR_OFF;
    26a0:	e501cfe3 	str	ip, [r1, #-4067]	; 0xfe3

 WR_ON;
    26a4:	e501cfe7 	str	ip, [r1, #-4071]	; 0xfe7
 RS_ON; // Data
    26a8:	e5019fe7 	str	r9, [r1, #-4071]	; 0xfe7
 FIOCLR = (0xFFFF<<NT35510_DT);
    26ac:	e5036fe3 	str	r6, [r3, #-4067]	; 0xfe3
 FIOSET = (data  <<NT35510_DT);
    26b0:	e503afe7 	str	sl, [r3, #-4071]	; 0xfe7
 WR_OFF;
    26b4:	e501cfe3 	str	ip, [r1, #-4067]	; 0xfe3

 WR_ON; 
    26b8:	e501cfe7 	str	ip, [r1, #-4071]	; 0xfe7
 WR_ON;
}
// ---------------------------------------------------
void NT35510_Reg( unsigned short cmd, unsigned short data)
{
 RS_OFF; // Comando
    26bc:	e5019fe3 	str	r9, [r1, #-4067]	; 0xfe3
 FIOCLR = (0xFFFF <<NT35510_DT);
    26c0:	e5036fe3 	str	r6, [r3, #-4067]	; 0xfe3
 FIOSET = (cmd    <<NT35510_DT);
    26c4:	e503bfe7 	str	fp, [r3, #-4071]	; 0xfe7
 WR_OFF;
    26c8:	e501cfe3 	str	ip, [r1, #-4067]	; 0xfe3

 WR_ON;
    26cc:	e501cfe7 	str	ip, [r1, #-4071]	; 0xfe7
// ---------------------------------------------------
void NT35510_Reg( unsigned short cmd, unsigned short data)
{
 RS_OFF; // Comando
 FIOCLR = (0xFFFF <<NT35510_DT);
 FIOSET = (cmd    <<NT35510_DT);
    26d0:	e51f1250 	ldr	r1, [pc, #-592]	; 2488 <TFT_Init+0x13a0>
 WR_OFF;

 WR_ON;
 RS_ON; // Data
 FIOCLR = (0xFFFF<<NT35510_DT);
 FIOSET = (data  <<NT35510_DT);
    26d4:	e3a0b801 	mov	fp, #65536	; 0x10000
 FIOCLR = (0xFFFF <<NT35510_DT);
 FIOSET = (cmd    <<NT35510_DT);
 WR_OFF;

 WR_ON;
 RS_ON; // Data
    26d8:	e5039fe7 	str	r9, [r3, #-4071]	; 0xfe7
 FIOCLR = (0xFFFF<<NT35510_DT);
    26dc:	e5036fe3 	str	r6, [r3, #-4067]	; 0xfe3
 FIOSET = (data  <<NT35510_DT);
    26e0:	e503bfe7 	str	fp, [r3, #-4071]	; 0xfe7
 WR_OFF;
    26e4:	e503cfe3 	str	ip, [r3, #-4067]	; 0xfe3

 WR_ON; 
    26e8:	e503cfe7 	str	ip, [r3, #-4071]	; 0xfe7
 WR_ON;
}
// ---------------------------------------------------
void NT35510_Reg( unsigned short cmd, unsigned short data)
{
 RS_OFF; // Comando
    26ec:	e5039fe3 	str	r9, [r3, #-4067]	; 0xfe3
 FIOCLR = (0xFFFF <<NT35510_DT);
    26f0:	e5036fe3 	str	r6, [r3, #-4067]	; 0xfe3
 FIOSET = (cmd    <<NT35510_DT);
    26f4:	e5031fe7 	str	r1, [r3, #-4071]	; 0xfe7
 WR_OFF;

 WR_ON;
 RS_ON; // Data
 FIOCLR = (0xFFFF<<NT35510_DT);
 FIOSET = (data  <<NT35510_DT);
    26f8:	e3a0184e 	mov	r1, #5111808	; 0x4e0000
void NT35510_Reg( unsigned short cmd, unsigned short data)
{
 RS_OFF; // Comando
 FIOCLR = (0xFFFF <<NT35510_DT);
 FIOSET = (cmd    <<NT35510_DT);
 WR_OFF;
    26fc:	e503cfe3 	str	ip, [r3, #-4067]	; 0xfe3

 WR_ON;
    2700:	e503cfe7 	str	ip, [r3, #-4071]	; 0xfe7
 RS_ON; // Data
    2704:	e5039fe7 	str	r9, [r3, #-4071]	; 0xfe7
 FIOCLR = (0xFFFF<<NT35510_DT);
    2708:	e5036fe3 	str	r6, [r3, #-4067]	; 0xfe3
 FIOSET = (data  <<NT35510_DT);
    270c:	e5031fe7 	str	r1, [r3, #-4071]	; 0xfe7
// ---------------------------------------------------
void NT35510_Reg( unsigned short cmd, unsigned short data)
{
 RS_OFF; // Comando
 FIOCLR = (0xFFFF <<NT35510_DT);
 FIOSET = (cmd    <<NT35510_DT);
    2710:	e51f128c 	ldr	r1, [pc, #-652]	; 248c <TFT_Init+0x13a4>

 WR_ON;
 RS_ON; // Data
 FIOCLR = (0xFFFF<<NT35510_DT);
 FIOSET = (data  <<NT35510_DT);
 WR_OFF;
    2714:	e503cfe3 	str	ip, [r3, #-4067]	; 0xfe3

 WR_ON; 
    2718:	e503cfe7 	str	ip, [r3, #-4071]	; 0xfe7
 WR_ON;
}
// ---------------------------------------------------
void NT35510_Reg( unsigned short cmd, unsigned short data)
{
 RS_OFF; // Comando
    271c:	e5039fe3 	str	r9, [r3, #-4067]	; 0xfe3
 FIOCLR = (0xFFFF <<NT35510_DT);
    2720:	e5036fe3 	str	r6, [r3, #-4067]	; 0xfe3
 FIOSET = (cmd    <<NT35510_DT);
    2724:	e5031fe7 	str	r1, [r3, #-4071]	; 0xfe7
    2728:	e081100b 	add	r1, r1, fp
 WR_OFF;
    272c:	e503cfe3 	str	ip, [r3, #-4067]	; 0xfe3

 WR_ON;
 RS_ON; // Data
 FIOCLR = (0xFFFF<<NT35510_DT);
 FIOSET = (data  <<NT35510_DT);
    2730:	e3a0a723 	mov	sl, #9175040	; 0x8c0000
 RS_OFF; // Comando
 FIOCLR = (0xFFFF <<NT35510_DT);
 FIOSET = (cmd    <<NT35510_DT);
 WR_OFF;

 WR_ON;
    2734:	e503cfe7 	str	ip, [r3, #-4071]	; 0xfe7
 RS_ON; // Data
    2738:	e5039fe7 	str	r9, [r3, #-4071]	; 0xfe7
 FIOCLR = (0xFFFF<<NT35510_DT);
    273c:	e5036fe3 	str	r6, [r3, #-4067]	; 0xfe3
 FIOSET = (data  <<NT35510_DT);
    2740:	e503bfe7 	str	fp, [r3, #-4071]	; 0xfe7
 WR_OFF;
    2744:	e503cfe3 	str	ip, [r3, #-4067]	; 0xfe3

 WR_ON; 
    2748:	e503cfe7 	str	ip, [r3, #-4071]	; 0xfe7
 WR_ON;
}
// ---------------------------------------------------
void NT35510_Reg( unsigned short cmd, unsigned short data)
{
 RS_OFF; // Comando
    274c:	e5039fe3 	str	r9, [r3, #-4067]	; 0xfe3
 FIOCLR = (0xFFFF <<NT35510_DT);
    2750:	e5036fe3 	str	r6, [r3, #-4067]	; 0xfe3
 FIOSET = (cmd    <<NT35510_DT);
    2754:	e5031fe7 	str	r1, [r3, #-4071]	; 0xfe7
    2758:	e081100b 	add	r1, r1, fp
 WR_OFF;
    275c:	e503cfe3 	str	ip, [r3, #-4067]	; 0xfe3

 WR_ON;
    2760:	e503cfe7 	str	ip, [r3, #-4071]	; 0xfe7
 RS_ON; // Data
    2764:	e5039fe7 	str	r9, [r3, #-4071]	; 0xfe7
 FIOCLR = (0xFFFF<<NT35510_DT);
    2768:	e5036fe3 	str	r6, [r3, #-4067]	; 0xfe3
 FIOSET = (data  <<NT35510_DT);
    276c:	e503afe7 	str	sl, [r3, #-4071]	; 0xfe7
 WR_OFF;
    2770:	e503cfe3 	str	ip, [r3, #-4067]	; 0xfe3

 WR_ON; 
    2774:	e503cfe7 	str	ip, [r3, #-4071]	; 0xfe7
 WR_ON;
}
// ---------------------------------------------------
void NT35510_Reg( unsigned short cmd, unsigned short data)
{
 RS_OFF; // Comando
    2778:	e5039fe3 	str	r9, [r3, #-4067]	; 0xfe3
 FIOCLR = (0xFFFF <<NT35510_DT);
    277c:	e5036fe3 	str	r6, [r3, #-4067]	; 0xfe3
 FIOSET = (cmd    <<NT35510_DT);
    2780:	e5031fe7 	str	r1, [r3, #-4071]	; 0xfe7
    2784:	e081100b 	add	r1, r1, fp
 WR_OFF;
    2788:	e503cfe3 	str	ip, [r3, #-4067]	; 0xfe3

 WR_ON;
    278c:	e503cfe7 	str	ip, [r3, #-4071]	; 0xfe7
 RS_ON; // Data
    2790:	e5039fe7 	str	r9, [r3, #-4071]	; 0xfe7
 FIOCLR = (0xFFFF<<NT35510_DT);
    2794:	e5036fe3 	str	r6, [r3, #-4067]	; 0xfe3
 FIOSET = (data  <<NT35510_DT);
    2798:	e503bfe7 	str	fp, [r3, #-4071]	; 0xfe7
 WR_OFF;
    279c:	e503cfe3 	str	ip, [r3, #-4067]	; 0xfe3

 WR_ON; 
    27a0:	e503cfe7 	str	ip, [r3, #-4071]	; 0xfe7
 WR_ON;
}
// ---------------------------------------------------
void NT35510_Reg( unsigned short cmd, unsigned short data)
{
 RS_OFF; // Comando
    27a4:	e5039fe3 	str	r9, [r3, #-4067]	; 0xfe3
 FIOCLR = (0xFFFF <<NT35510_DT);
    27a8:	e5036fe3 	str	r6, [r3, #-4067]	; 0xfe3
 FIOSET = (cmd    <<NT35510_DT);
    27ac:	e5031fe7 	str	r1, [r3, #-4071]	; 0xfe7
 WR_OFF;

 WR_ON;
 RS_ON; // Data
 FIOCLR = (0xFFFF<<NT35510_DT);
 FIOSET = (data  <<NT35510_DT);
    27b0:	e3a018be 	mov	r1, #12451840	; 0xbe0000
void NT35510_Reg( unsigned short cmd, unsigned short data)
{
 RS_OFF; // Comando
 FIOCLR = (0xFFFF <<NT35510_DT);
 FIOSET = (cmd    <<NT35510_DT);
 WR_OFF;
    27b4:	e503cfe3 	str	ip, [r3, #-4067]	; 0xfe3

 WR_ON;
    27b8:	e503cfe7 	str	ip, [r3, #-4071]	; 0xfe7
 RS_ON; // Data
    27bc:	e5039fe7 	str	r9, [r3, #-4071]	; 0xfe7
 FIOCLR = (0xFFFF<<NT35510_DT);
    27c0:	e5036fe3 	str	r6, [r3, #-4067]	; 0xfe3
 FIOSET = (data  <<NT35510_DT);
    27c4:	e5031fe7 	str	r1, [r3, #-4071]	; 0xfe7
// ---------------------------------------------------
void NT35510_Reg( unsigned short cmd, unsigned short data)
{
 RS_OFF; // Comando
 FIOCLR = (0xFFFF <<NT35510_DT);
 FIOSET = (cmd    <<NT35510_DT);
    27c8:	e51f1340 	ldr	r1, [pc, #-832]	; 2490 <TFT_Init+0x13a8>

 WR_ON;
 RS_ON; // Data
 FIOCLR = (0xFFFF<<NT35510_DT);
 FIOSET = (data  <<NT35510_DT);
 WR_OFF;
    27cc:	e503cfe3 	str	ip, [r3, #-4067]	; 0xfe3
 WR_OFF;

 WR_ON;
 RS_ON; // Data
 FIOCLR = (0xFFFF<<NT35510_DT);
 FIOSET = (data  <<NT35510_DT);
    27d0:	e3a0b802 	mov	fp, #131072	; 0x20000
 WR_OFF;

 WR_ON; 
    27d4:	e503cfe7 	str	ip, [r3, #-4071]	; 0xfe7
 WR_ON;
}
// ---------------------------------------------------
void NT35510_Reg( unsigned short cmd, unsigned short data)
{
 RS_OFF; // Comando
    27d8:	e5039fe3 	str	r9, [r3, #-4067]	; 0xfe3
 FIOCLR = (0xFFFF <<NT35510_DT);
    27dc:	e5036fe3 	str	r6, [r3, #-4067]	; 0xfe3
 FIOSET = (cmd    <<NT35510_DT);
    27e0:	e5031fe7 	str	r1, [r3, #-4071]	; 0xfe7
    27e4:	e2811801 	add	r1, r1, #65536	; 0x10000
 WR_OFF;
    27e8:	e503cfe3 	str	ip, [r3, #-4067]	; 0xfe3

 WR_ON;
    27ec:	e503cfe7 	str	ip, [r3, #-4071]	; 0xfe7
 RS_ON; // Data
    27f0:	e5039fe7 	str	r9, [r3, #-4071]	; 0xfe7
 FIOCLR = (0xFFFF<<NT35510_DT);
    27f4:	e5036fe3 	str	r6, [r3, #-4067]	; 0xfe3
 FIOSET = (data  <<NT35510_DT);
    27f8:	e503bfe7 	str	fp, [r3, #-4071]	; 0xfe7
 WR_OFF;
    27fc:	e503cfe3 	str	ip, [r3, #-4067]	; 0xfe3

 WR_ON; 
    2800:	e503cfe7 	str	ip, [r3, #-4071]	; 0xfe7
 WR_ON;
}
// ---------------------------------------------------
void NT35510_Reg( unsigned short cmd, unsigned short data)
{
 RS_OFF; // Comando
    2804:	e5039fe3 	str	r9, [r3, #-4067]	; 0xfe3
 FIOCLR = (0xFFFF <<NT35510_DT);
    2808:	e5036fe3 	str	r6, [r3, #-4067]	; 0xfe3
 FIOSET = (cmd    <<NT35510_DT);
    280c:	e5031fe7 	str	r1, [r3, #-4071]	; 0xfe7
 WR_OFF;

 WR_ON;
 RS_ON; // Data
 FIOCLR = (0xFFFF<<NT35510_DT);
 FIOSET = (data  <<NT35510_DT);
    2810:	e3a0180b 	mov	r1, #720896	; 0xb0000
void NT35510_Reg( unsigned short cmd, unsigned short data)
{
 RS_OFF; // Comando
 FIOCLR = (0xFFFF <<NT35510_DT);
 FIOSET = (cmd    <<NT35510_DT);
 WR_OFF;
    2814:	e503cfe3 	str	ip, [r3, #-4067]	; 0xfe3

 WR_ON;
    2818:	e503cfe7 	str	ip, [r3, #-4071]	; 0xfe7
 RS_ON; // Data
    281c:	e5039fe7 	str	r9, [r3, #-4071]	; 0xfe7
 FIOCLR = (0xFFFF<<NT35510_DT);
    2820:	e5036fe3 	str	r6, [r3, #-4067]	; 0xfe3
 FIOSET = (data  <<NT35510_DT);
    2824:	e5031fe7 	str	r1, [r3, #-4071]	; 0xfe7
// ---------------------------------------------------
void NT35510_Reg( unsigned short cmd, unsigned short data)
{
 RS_OFF; // Comando
 FIOCLR = (0xFFFF <<NT35510_DT);
 FIOSET = (cmd    <<NT35510_DT);
    2828:	e51f139c 	ldr	r1, [pc, #-924]	; 2494 <TFT_Init+0x13ac>

 WR_ON;
 RS_ON; // Data
 FIOCLR = (0xFFFF<<NT35510_DT);
 FIOSET = (data  <<NT35510_DT);
 WR_OFF;
    282c:	e503cfe3 	str	ip, [r3, #-4067]	; 0xfe3

 WR_ON; 
    2830:	e503cfe7 	str	ip, [r3, #-4071]	; 0xfe7
 WR_ON;
}
// ---------------------------------------------------
void NT35510_Reg( unsigned short cmd, unsigned short data)
{
 RS_OFF; // Comando
    2834:	e5039fe3 	str	r9, [r3, #-4067]	; 0xfe3
 FIOCLR = (0xFFFF <<NT35510_DT);
    2838:	e5036fe3 	str	r6, [r3, #-4067]	; 0xfe3
 FIOSET = (cmd    <<NT35510_DT);
    283c:	e5031fe7 	str	r1, [r3, #-4071]	; 0xfe7
    2840:	e2811801 	add	r1, r1, #65536	; 0x10000
 WR_OFF;
    2844:	e503cfe3 	str	ip, [r3, #-4067]	; 0xfe3

 WR_ON;
    2848:	e503cfe7 	str	ip, [r3, #-4071]	; 0xfe7
 RS_ON; // Data
    284c:	e5039fe7 	str	r9, [r3, #-4071]	; 0xfe7
 FIOCLR = (0xFFFF<<NT35510_DT);
    2850:	e5036fe3 	str	r6, [r3, #-4067]	; 0xfe3
 FIOSET = (data  <<NT35510_DT);
    2854:	e503bfe7 	str	fp, [r3, #-4071]	; 0xfe7
 WR_OFF;
    2858:	e503cfe3 	str	ip, [r3, #-4067]	; 0xfe3

 WR_ON; 
    285c:	e503cfe7 	str	ip, [r3, #-4071]	; 0xfe7
 WR_ON;
}
// ---------------------------------------------------
void NT35510_Reg( unsigned short cmd, unsigned short data)
{
 RS_OFF; // Comando
    2860:	e5039fe3 	str	r9, [r3, #-4067]	; 0xfe3
 FIOCLR = (0xFFFF <<NT35510_DT);
    2864:	e5036fe3 	str	r6, [r3, #-4067]	; 0xfe3
 FIOSET = (cmd    <<NT35510_DT);
    2868:	e5031fe7 	str	r1, [r3, #-4071]	; 0xfe7
 WR_OFF;

 WR_ON;
 RS_ON; // Data
 FIOCLR = (0xFFFF<<NT35510_DT);
 FIOSET = (data  <<NT35510_DT);
    286c:	e3a01712 	mov	r1, #4718592	; 0x480000
void NT35510_Reg( unsigned short cmd, unsigned short data)
{
 RS_OFF; // Comando
 FIOCLR = (0xFFFF <<NT35510_DT);
 FIOSET = (cmd    <<NT35510_DT);
 WR_OFF;
    2870:	e503cfe3 	str	ip, [r3, #-4067]	; 0xfe3

 WR_ON;
    2874:	e503cfe7 	str	ip, [r3, #-4071]	; 0xfe7
 RS_ON; // Data
    2878:	e5039fe7 	str	r9, [r3, #-4071]	; 0xfe7
 FIOCLR = (0xFFFF<<NT35510_DT);
    287c:	e5036fe3 	str	r6, [r3, #-4067]	; 0xfe3
 FIOSET = (data  <<NT35510_DT);
    2880:	e5031fe7 	str	r1, [r3, #-4071]	; 0xfe7
// ---------------------------------------------------
void NT35510_Reg( unsigned short cmd, unsigned short data)
{
 RS_OFF; // Comando
 FIOCLR = (0xFFFF <<NT35510_DT);
 FIOSET = (cmd    <<NT35510_DT);
    2884:	e51f13f4 	ldr	r1, [pc, #-1012]	; 2498 <TFT_Init+0x13b0>

 WR_ON;
 RS_ON; // Data
 FIOCLR = (0xFFFF<<NT35510_DT);
 FIOSET = (data  <<NT35510_DT);
 WR_OFF;
    2888:	e503cfe3 	str	ip, [r3, #-4067]	; 0xfe3

 WR_ON; 
    288c:	e503cfe7 	str	ip, [r3, #-4071]	; 0xfe7
 WR_ON;
}
// ---------------------------------------------------
void NT35510_Reg( unsigned short cmd, unsigned short data)
{
 RS_OFF; // Comando
    2890:	e5039fe3 	str	r9, [r3, #-4067]	; 0xfe3
 FIOCLR = (0xFFFF <<NT35510_DT);
    2894:	e5036fe3 	str	r6, [r3, #-4067]	; 0xfe3
 FIOSET = (cmd    <<NT35510_DT);
    2898:	e5031fe7 	str	r1, [r3, #-4071]	; 0xfe7
    289c:	e2811801 	add	r1, r1, #65536	; 0x10000
 WR_OFF;
    28a0:	e503cfe3 	str	ip, [r3, #-4067]	; 0xfe3

 WR_ON;
    28a4:	e503cfe7 	str	ip, [r3, #-4071]	; 0xfe7
 RS_ON; // Data
    28a8:	e5039fe7 	str	r9, [r3, #-4071]	; 0xfe7
 FIOCLR = (0xFFFF<<NT35510_DT);
    28ac:	e5036fe3 	str	r6, [r3, #-4067]	; 0xfe3
 FIOSET = (data  <<NT35510_DT);
    28b0:	e503bfe7 	str	fp, [r3, #-4071]	; 0xfe7
 WR_OFF;
    28b4:	e503cfe3 	str	ip, [r3, #-4067]	; 0xfe3

 WR_ON; 
    28b8:	e503cfe7 	str	ip, [r3, #-4071]	; 0xfe7
 WR_ON;
}
// ---------------------------------------------------
void NT35510_Reg( unsigned short cmd, unsigned short data)
{
 RS_OFF; // Comando
    28bc:	e5039fe3 	str	r9, [r3, #-4067]	; 0xfe3
 FIOCLR = (0xFFFF <<NT35510_DT);
    28c0:	e5036fe3 	str	r6, [r3, #-4067]	; 0xfe3
 FIOSET = (cmd    <<NT35510_DT);
    28c4:	e5031fe7 	str	r1, [r3, #-4071]	; 0xfe7
 WR_OFF;

 WR_ON;
 RS_ON; // Data
 FIOCLR = (0xFFFF<<NT35510_DT);
 FIOSET = (data  <<NT35510_DT);
    28c8:	e3a0184a 	mov	r1, #4849664	; 0x4a0000
void NT35510_Reg( unsigned short cmd, unsigned short data)
{
 RS_OFF; // Comando
 FIOCLR = (0xFFFF <<NT35510_DT);
 FIOSET = (cmd    <<NT35510_DT);
 WR_OFF;
    28cc:	e503cfe3 	str	ip, [r3, #-4067]	; 0xfe3

 WR_ON;
    28d0:	e503cfe7 	str	ip, [r3, #-4071]	; 0xfe7
 RS_ON; // Data
    28d4:	e5039fe7 	str	r9, [r3, #-4071]	; 0xfe7
 FIOCLR = (0xFFFF<<NT35510_DT);
    28d8:	e5036fe3 	str	r6, [r3, #-4067]	; 0xfe3
 FIOSET = (data  <<NT35510_DT);
    28dc:	e5031fe7 	str	r1, [r3, #-4071]	; 0xfe7
// ---------------------------------------------------
void NT35510_Reg( unsigned short cmd, unsigned short data)
{
 RS_OFF; // Comando
 FIOCLR = (0xFFFF <<NT35510_DT);
 FIOSET = (cmd    <<NT35510_DT);
    28e0:	e51f144c 	ldr	r1, [pc, #-1100]	; 249c <TFT_Init+0x13b4>

 WR_ON;
 RS_ON; // Data
 FIOCLR = (0xFFFF<<NT35510_DT);
 FIOSET = (data  <<NT35510_DT);
 WR_OFF;
    28e4:	e503cfe3 	str	ip, [r3, #-4067]	; 0xfe3

 WR_ON; 
    28e8:	e503cfe7 	str	ip, [r3, #-4071]	; 0xfe7
 WR_ON;
}
// ---------------------------------------------------
void NT35510_Reg( unsigned short cmd, unsigned short data)
{
 RS_OFF; // Comando
    28ec:	e5039fe3 	str	r9, [r3, #-4067]	; 0xfe3
 FIOCLR = (0xFFFF <<NT35510_DT);
    28f0:	e5036fe3 	str	r6, [r3, #-4067]	; 0xfe3
 FIOSET = (cmd    <<NT35510_DT);
    28f4:	e5031fe7 	str	r1, [r3, #-4071]	; 0xfe7
    28f8:	e2811801 	add	r1, r1, #65536	; 0x10000
 WR_OFF;
    28fc:	e503cfe3 	str	ip, [r3, #-4067]	; 0xfe3

 WR_ON;
    2900:	e503cfe7 	str	ip, [r3, #-4071]	; 0xfe7
 RS_ON; // Data
    2904:	e5039fe7 	str	r9, [r3, #-4071]	; 0xfe7
 FIOCLR = (0xFFFF<<NT35510_DT);
    2908:	e5036fe3 	str	r6, [r3, #-4067]	; 0xfe3
 FIOSET = (data  <<NT35510_DT);
    290c:	e503bfe7 	str	fp, [r3, #-4071]	; 0xfe7
 WR_OFF;
    2910:	e503cfe3 	str	ip, [r3, #-4067]	; 0xfe3

 WR_ON; 
    2914:	e503cfe7 	str	ip, [r3, #-4071]	; 0xfe7
 WR_ON;
}
// ---------------------------------------------------
void NT35510_Reg( unsigned short cmd, unsigned short data)
{
 RS_OFF; // Comando
    2918:	e5039fe3 	str	r9, [r3, #-4067]	; 0xfe3
 FIOCLR = (0xFFFF <<NT35510_DT);
    291c:	e5036fe3 	str	r6, [r3, #-4067]	; 0xfe3
 FIOSET = (cmd    <<NT35510_DT);
    2920:	e5031fe7 	str	r1, [r3, #-4071]	; 0xfe7
 WR_OFF;

 WR_ON;
 RS_ON; // Data
 FIOCLR = (0xFFFF<<NT35510_DT);
 FIOSET = (data  <<NT35510_DT);
    2924:	e3a0187e 	mov	r1, #8257536	; 0x7e0000
void NT35510_Reg( unsigned short cmd, unsigned short data)
{
 RS_OFF; // Comando
 FIOCLR = (0xFFFF <<NT35510_DT);
 FIOSET = (cmd    <<NT35510_DT);
 WR_OFF;
    2928:	e503cfe3 	str	ip, [r3, #-4067]	; 0xfe3

 WR_ON;
    292c:	e503cfe7 	str	ip, [r3, #-4071]	; 0xfe7
 RS_ON; // Data
    2930:	e5039fe7 	str	r9, [r3, #-4071]	; 0xfe7
 FIOCLR = (0xFFFF<<NT35510_DT);
    2934:	e5036fe3 	str	r6, [r3, #-4067]	; 0xfe3
 FIOSET = (data  <<NT35510_DT);
    2938:	e5031fe7 	str	r1, [r3, #-4071]	; 0xfe7
// ---------------------------------------------------
void NT35510_Reg( unsigned short cmd, unsigned short data)
{
 RS_OFF; // Comando
 FIOCLR = (0xFFFF <<NT35510_DT);
 FIOSET = (cmd    <<NT35510_DT);
    293c:	e51f14a4 	ldr	r1, [pc, #-1188]	; 24a0 <TFT_Init+0x13b8>

 WR_ON;
 RS_ON; // Data
 FIOCLR = (0xFFFF<<NT35510_DT);
 FIOSET = (data  <<NT35510_DT);
 WR_OFF;
    2940:	e503cfe3 	str	ip, [r3, #-4067]	; 0xfe3

 WR_ON; 
    2944:	e503cfe7 	str	ip, [r3, #-4071]	; 0xfe7
 WR_ON;
}
// ---------------------------------------------------
void NT35510_Reg( unsigned short cmd, unsigned short data)
{
 RS_OFF; // Comando
    2948:	e5039fe3 	str	r9, [r3, #-4067]	; 0xfe3
 FIOCLR = (0xFFFF <<NT35510_DT);
    294c:	e5036fe3 	str	r6, [r3, #-4067]	; 0xfe3
 FIOSET = (cmd    <<NT35510_DT);
    2950:	e5031fe7 	str	r1, [r3, #-4071]	; 0xfe7
    2954:	e2811801 	add	r1, r1, #65536	; 0x10000
 WR_OFF;
    2958:	e503cfe3 	str	ip, [r3, #-4067]	; 0xfe3

 WR_ON;
    295c:	e503cfe7 	str	ip, [r3, #-4071]	; 0xfe7
 RS_ON; // Data
    2960:	e5039fe7 	str	r9, [r3, #-4071]	; 0xfe7
 FIOCLR = (0xFFFF<<NT35510_DT);
    2964:	e5036fe3 	str	r6, [r3, #-4067]	; 0xfe3
 FIOSET = (data  <<NT35510_DT);
    2968:	e503bfe7 	str	fp, [r3, #-4071]	; 0xfe7
 WR_OFF;
    296c:	e503cfe3 	str	ip, [r3, #-4067]	; 0xfe3

 WR_ON; 
    2970:	e503cfe7 	str	ip, [r3, #-4071]	; 0xfe7
 WR_ON;
}
// ---------------------------------------------------
void NT35510_Reg( unsigned short cmd, unsigned short data)
{
 RS_OFF; // Comando
    2974:	e5039fe3 	str	r9, [r3, #-4067]	; 0xfe3
 FIOCLR = (0xFFFF <<NT35510_DT);
    2978:	e5036fe3 	str	r6, [r3, #-4067]	; 0xfe3
 FIOSET = (cmd    <<NT35510_DT);
    297c:	e5031fe7 	str	r1, [r3, #-4071]	; 0xfe7
 WR_OFF;

 WR_ON;
 RS_ON; // Data
 FIOCLR = (0xFFFF<<NT35510_DT);
 FIOSET = (data  <<NT35510_DT);
    2980:	e3a0172f 	mov	r1, #12320768	; 0xbc0000
void NT35510_Reg( unsigned short cmd, unsigned short data)
{
 RS_OFF; // Comando
 FIOCLR = (0xFFFF <<NT35510_DT);
 FIOSET = (cmd    <<NT35510_DT);
 WR_OFF;
    2984:	e503cfe3 	str	ip, [r3, #-4067]	; 0xfe3

 WR_ON;
    2988:	e503cfe7 	str	ip, [r3, #-4071]	; 0xfe7
 RS_ON; // Data
    298c:	e5039fe7 	str	r9, [r3, #-4071]	; 0xfe7
 FIOCLR = (0xFFFF<<NT35510_DT);
    2990:	e5036fe3 	str	r6, [r3, #-4067]	; 0xfe3
 FIOSET = (data  <<NT35510_DT);
    2994:	e5031fe7 	str	r1, [r3, #-4071]	; 0xfe7
// ---------------------------------------------------
void NT35510_Reg( unsigned short cmd, unsigned short data)
{
 RS_OFF; // Comando
 FIOCLR = (0xFFFF <<NT35510_DT);
 FIOSET = (cmd    <<NT35510_DT);
    2998:	e51f14fc 	ldr	r1, [pc, #-1276]	; 24a4 <TFT_Init+0x13bc>

 WR_ON;
 RS_ON; // Data
 FIOCLR = (0xFFFF<<NT35510_DT);
 FIOSET = (data  <<NT35510_DT);
 WR_OFF;
    299c:	e503cfe3 	str	ip, [r3, #-4067]	; 0xfe3

 WR_ON; 
    29a0:	e503cfe7 	str	ip, [r3, #-4071]	; 0xfe7
 WR_ON;
}
// ---------------------------------------------------
void NT35510_Reg( unsigned short cmd, unsigned short data)
{
 RS_OFF; // Comando
    29a4:	e5039fe3 	str	r9, [r3, #-4067]	; 0xfe3
 FIOCLR = (0xFFFF <<NT35510_DT);
    29a8:	e5036fe3 	str	r6, [r3, #-4067]	; 0xfe3
 FIOSET = (cmd    <<NT35510_DT);
    29ac:	e5031fe7 	str	r1, [r3, #-4071]	; 0xfe7
    29b0:	e2811801 	add	r1, r1, #65536	; 0x10000
 WR_OFF;
    29b4:	e503cfe3 	str	ip, [r3, #-4067]	; 0xfe3

 WR_ON;
    29b8:	e503cfe7 	str	ip, [r3, #-4071]	; 0xfe7
 RS_ON; // Data
    29bc:	e5039fe7 	str	r9, [r3, #-4071]	; 0xfe7
 FIOCLR = (0xFFFF<<NT35510_DT);
    29c0:	e5036fe3 	str	r6, [r3, #-4067]	; 0xfe3
 FIOSET = (data  <<NT35510_DT);
    29c4:	e503bfe7 	str	fp, [r3, #-4071]	; 0xfe7
 WR_OFF;
    29c8:	e503cfe3 	str	ip, [r3, #-4067]	; 0xfe3

 WR_ON; 
    29cc:	e503cfe7 	str	ip, [r3, #-4071]	; 0xfe7
 WR_ON;
}
// ---------------------------------------------------
void NT35510_Reg( unsigned short cmd, unsigned short data)
{
 RS_OFF; // Comando
    29d0:	e5039fe3 	str	r9, [r3, #-4067]	; 0xfe3
 FIOCLR = (0xFFFF <<NT35510_DT);
    29d4:	e5036fe3 	str	r6, [r3, #-4067]	; 0xfe3
 FIOSET = (cmd    <<NT35510_DT);
    29d8:	e5031fe7 	str	r1, [r3, #-4071]	; 0xfe7
 WR_OFF;

 WR_ON;
 RS_ON; // Data
 FIOCLR = (0xFFFF<<NT35510_DT);
 FIOSET = (data  <<NT35510_DT);
    29dc:	e3a018e1 	mov	r1, #14745600	; 0xe10000
void NT35510_Reg( unsigned short cmd, unsigned short data)
{
 RS_OFF; // Comando
 FIOCLR = (0xFFFF <<NT35510_DT);
 FIOSET = (cmd    <<NT35510_DT);
 WR_OFF;
    29e0:	e503cfe3 	str	ip, [r3, #-4067]	; 0xfe3

 WR_ON;
    29e4:	e503cfe7 	str	ip, [r3, #-4071]	; 0xfe7
 RS_ON; // Data
    29e8:	e5039fe7 	str	r9, [r3, #-4071]	; 0xfe7
 FIOCLR = (0xFFFF<<NT35510_DT);
    29ec:	e5036fe3 	str	r6, [r3, #-4067]	; 0xfe3
 FIOSET = (data  <<NT35510_DT);
    29f0:	e5031fe7 	str	r1, [r3, #-4071]	; 0xfe7
// ---------------------------------------------------
void NT35510_Reg( unsigned short cmd, unsigned short data)
{
 RS_OFF; // Comando
 FIOCLR = (0xFFFF <<NT35510_DT);
 FIOSET = (cmd    <<NT35510_DT);
    29f4:	e51f1554 	ldr	r1, [pc, #-1364]	; 24a8 <TFT_Init+0x13c0>

 WR_ON;
 RS_ON; // Data
 FIOCLR = (0xFFFF<<NT35510_DT);
 FIOSET = (data  <<NT35510_DT);
 WR_OFF;
    29f8:	e503cfe3 	str	ip, [r3, #-4067]	; 0xfe3

 WR_ON; 
    29fc:	e503cfe7 	str	ip, [r3, #-4071]	; 0xfe7
 WR_ON;
}
// ---------------------------------------------------
void NT35510_Reg( unsigned short cmd, unsigned short data)
{
 RS_OFF; // Comando
    2a00:	e5039fe3 	str	r9, [r3, #-4067]	; 0xfe3
 FIOCLR = (0xFFFF <<NT35510_DT);
    2a04:	e5036fe3 	str	r6, [r3, #-4067]	; 0xfe3
 FIOSET = (cmd    <<NT35510_DT);
    2a08:	e5031fe7 	str	r1, [r3, #-4071]	; 0xfe7
 WR_OFF;

 WR_ON;
 RS_ON; // Data
 FIOCLR = (0xFFFF<<NT35510_DT);
 FIOSET = (data  <<NT35510_DT);
    2a0c:	e3a01803 	mov	r1, #196608	; 0x30000
void NT35510_Reg( unsigned short cmd, unsigned short data)
{
 RS_OFF; // Comando
 FIOCLR = (0xFFFF <<NT35510_DT);
 FIOSET = (cmd    <<NT35510_DT);
 WR_OFF;
    2a10:	e503cfe3 	str	ip, [r3, #-4067]	; 0xfe3

 WR_ON;
    2a14:	e503cfe7 	str	ip, [r3, #-4071]	; 0xfe7
 RS_ON; // Data
    2a18:	e5039fe7 	str	r9, [r3, #-4071]	; 0xfe7
 FIOCLR = (0xFFFF<<NT35510_DT);
    2a1c:	e5036fe3 	str	r6, [r3, #-4067]	; 0xfe3
 FIOSET = (data  <<NT35510_DT);
    2a20:	e5031fe7 	str	r1, [r3, #-4071]	; 0xfe7
// ---------------------------------------------------
void NT35510_Reg( unsigned short cmd, unsigned short data)
{
 RS_OFF; // Comando
 FIOCLR = (0xFFFF <<NT35510_DT);
 FIOSET = (cmd    <<NT35510_DT);
    2a24:	e51f1580 	ldr	r1, [pc, #-1408]	; 24ac <TFT_Init+0x13c4>

 WR_ON;
 RS_ON; // Data
 FIOCLR = (0xFFFF<<NT35510_DT);
 FIOSET = (data  <<NT35510_DT);
 WR_OFF;
    2a28:	e503cfe3 	str	ip, [r3, #-4067]	; 0xfe3

 WR_ON; 
    2a2c:	e503cfe7 	str	ip, [r3, #-4071]	; 0xfe7
 WR_ON;
}
// ---------------------------------------------------
void NT35510_Reg( unsigned short cmd, unsigned short data)
{
 RS_OFF; // Comando
    2a30:	e5039fe3 	str	r9, [r3, #-4067]	; 0xfe3
 FIOCLR = (0xFFFF <<NT35510_DT);
    2a34:	e5036fe3 	str	r6, [r3, #-4067]	; 0xfe3
 FIOSET = (cmd    <<NT35510_DT);
    2a38:	e5031fe7 	str	r1, [r3, #-4071]	; 0xfe7
 WR_OFF;

 WR_ON;
 RS_ON; // Data
 FIOCLR = (0xFFFF<<NT35510_DT);
 FIOSET = (data  <<NT35510_DT);
    2a3c:	e3a01601 	mov	r1, #1048576	; 0x100000
void NT35510_Reg( unsigned short cmd, unsigned short data)
{
 RS_OFF; // Comando
 FIOCLR = (0xFFFF <<NT35510_DT);
 FIOSET = (cmd    <<NT35510_DT);
 WR_OFF;
    2a40:	e503cfe3 	str	ip, [r3, #-4067]	; 0xfe3

 WR_ON;
    2a44:	e503cfe7 	str	ip, [r3, #-4071]	; 0xfe7
 RS_ON; // Data
    2a48:	e5039fe7 	str	r9, [r3, #-4071]	; 0xfe7
 FIOCLR = (0xFFFF<<NT35510_DT);
    2a4c:	e5036fe3 	str	r6, [r3, #-4067]	; 0xfe3
 FIOSET = (data  <<NT35510_DT);
    2a50:	e5031fe7 	str	r1, [r3, #-4071]	; 0xfe7
// ---------------------------------------------------
void NT35510_Reg( unsigned short cmd, unsigned short data)
{
 RS_OFF; // Comando
 FIOCLR = (0xFFFF <<NT35510_DT);
 FIOSET = (cmd    <<NT35510_DT);
    2a54:	e51f15ac 	ldr	r1, [pc, #-1452]	; 24b0 <TFT_Init+0x13c8>

 WR_ON;
 RS_ON; // Data
 FIOCLR = (0xFFFF<<NT35510_DT);
 FIOSET = (data  <<NT35510_DT);
 WR_OFF;
    2a58:	e503cfe3 	str	ip, [r3, #-4067]	; 0xfe3
 WR_OFF;

 WR_ON;
 RS_ON; // Data
 FIOCLR = (0xFFFF<<NT35510_DT);
 FIOSET = (data  <<NT35510_DT);
    2a5c:	e3a0a803 	mov	sl, #196608	; 0x30000
 WR_OFF;

 WR_ON; 
    2a60:	e503cfe7 	str	ip, [r3, #-4071]	; 0xfe7
 WR_ON;
}
// ---------------------------------------------------
void NT35510_Reg( unsigned short cmd, unsigned short data)
{
 RS_OFF; // Comando
    2a64:	e5039fe3 	str	r9, [r3, #-4067]	; 0xfe3
 FIOCLR = (0xFFFF <<NT35510_DT);
    2a68:	e5036fe3 	str	r6, [r3, #-4067]	; 0xfe3
 FIOSET = (cmd    <<NT35510_DT);
    2a6c:	e5031fe7 	str	r1, [r3, #-4071]	; 0xfe7
    2a70:	e2811801 	add	r1, r1, #65536	; 0x10000
 WR_OFF;
    2a74:	e503cfe3 	str	ip, [r3, #-4067]	; 0xfe3

 WR_ON;
    2a78:	e503cfe7 	str	ip, [r3, #-4071]	; 0xfe7
 RS_ON; // Data
    2a7c:	e5039fe7 	str	r9, [r3, #-4071]	; 0xfe7
 FIOCLR = (0xFFFF<<NT35510_DT);
    2a80:	e5036fe3 	str	r6, [r3, #-4067]	; 0xfe3
 FIOSET = (data  <<NT35510_DT);
    2a84:	e503afe7 	str	sl, [r3, #-4071]	; 0xfe7
 WR_OFF;
    2a88:	e503cfe3 	str	ip, [r3, #-4067]	; 0xfe3

 WR_ON; 
    2a8c:	e503cfe7 	str	ip, [r3, #-4071]	; 0xfe7
 WR_ON;
}
// ---------------------------------------------------
void NT35510_Reg( unsigned short cmd, unsigned short data)
{
 RS_OFF; // Comando
    2a90:	e5039fe3 	str	r9, [r3, #-4067]	; 0xfe3
 FIOCLR = (0xFFFF <<NT35510_DT);
    2a94:	e5036fe3 	str	r6, [r3, #-4067]	; 0xfe3
 FIOSET = (cmd    <<NT35510_DT);
    2a98:	e5031fe7 	str	r1, [r3, #-4071]	; 0xfe7
 WR_OFF;

 WR_ON;
 RS_ON; // Data
 FIOCLR = (0xFFFF<<NT35510_DT);
 FIOSET = (data  <<NT35510_DT);
    2a9c:	e3a01831 	mov	r1, #3211264	; 0x310000
void NT35510_Reg( unsigned short cmd, unsigned short data)
{
 RS_OFF; // Comando
 FIOCLR = (0xFFFF <<NT35510_DT);
 FIOSET = (cmd    <<NT35510_DT);
 WR_OFF;
    2aa0:	e503cfe3 	str	ip, [r3, #-4067]	; 0xfe3

 WR_ON;
    2aa4:	e503cfe7 	str	ip, [r3, #-4071]	; 0xfe7
 RS_ON; // Data
    2aa8:	e5039fe7 	str	r9, [r3, #-4071]	; 0xfe7
 FIOCLR = (0xFFFF<<NT35510_DT);
    2aac:	e5036fe3 	str	r6, [r3, #-4067]	; 0xfe3
 FIOSET = (data  <<NT35510_DT);
    2ab0:	e5031fe7 	str	r1, [r3, #-4071]	; 0xfe7
// ---------------------------------------------------
void NT35510_Reg( unsigned short cmd, unsigned short data)
{
 RS_OFF; // Comando
 FIOCLR = (0xFFFF <<NT35510_DT);
 FIOSET = (cmd    <<NT35510_DT);
    2ab4:	e51f1608 	ldr	r1, [pc, #-1544]	; 24b4 <TFT_Init+0x13cc>

 WR_ON;
 RS_ON; // Data
 FIOCLR = (0xFFFF<<NT35510_DT);
 FIOSET = (data  <<NT35510_DT);
 WR_OFF;
    2ab8:	e503cfe3 	str	ip, [r3, #-4067]	; 0xfe3

 WR_ON; 
    2abc:	e503cfe7 	str	ip, [r3, #-4071]	; 0xfe7
 WR_ON;
}
// ---------------------------------------------------
void NT35510_Reg( unsigned short cmd, unsigned short data)
{
 RS_OFF; // Comando
    2ac0:	e5039fe3 	str	r9, [r3, #-4067]	; 0xfe3
 FIOCLR = (0xFFFF <<NT35510_DT);
    2ac4:	e5036fe3 	str	r6, [r3, #-4067]	; 0xfe3
 FIOSET = (cmd    <<NT35510_DT);
    2ac8:	e5031fe7 	str	r1, [r3, #-4071]	; 0xfe7
    2acc:	e2811801 	add	r1, r1, #65536	; 0x10000
 WR_OFF;
    2ad0:	e503cfe3 	str	ip, [r3, #-4067]	; 0xfe3

 WR_ON;
 RS_ON; // Data
 FIOCLR = (0xFFFF<<NT35510_DT);
 FIOSET = (data  <<NT35510_DT);
    2ad4:	e3a0b85a 	mov	fp, #5898240	; 0x5a0000
 RS_OFF; // Comando
 FIOCLR = (0xFFFF <<NT35510_DT);
 FIOSET = (cmd    <<NT35510_DT);
 WR_OFF;

 WR_ON;
    2ad8:	e503cfe7 	str	ip, [r3, #-4071]	; 0xfe7
 RS_ON; // Data
    2adc:	e5039fe7 	str	r9, [r3, #-4071]	; 0xfe7
 FIOCLR = (0xFFFF<<NT35510_DT);
    2ae0:	e5036fe3 	str	r6, [r3, #-4067]	; 0xfe3
 FIOSET = (data  <<NT35510_DT);
    2ae4:	e503afe7 	str	sl, [r3, #-4071]	; 0xfe7
 WR_OFF;
    2ae8:	e503cfe3 	str	ip, [r3, #-4067]	; 0xfe3

 WR_ON; 
    2aec:	e503cfe7 	str	ip, [r3, #-4071]	; 0xfe7
 WR_ON;
}
// ---------------------------------------------------
void NT35510_Reg( unsigned short cmd, unsigned short data)
{
 RS_OFF; // Comando
    2af0:	e5039fe3 	str	r9, [r3, #-4067]	; 0xfe3
 FIOCLR = (0xFFFF <<NT35510_DT);
    2af4:	e5036fe3 	str	r6, [r3, #-4067]	; 0xfe3
 FIOSET = (cmd    <<NT35510_DT);
    2af8:	e5031fe7 	str	r1, [r3, #-4071]	; 0xfe7
    2afc:	e2811801 	add	r1, r1, #65536	; 0x10000
 WR_OFF;
    2b00:	e503cfe3 	str	ip, [r3, #-4067]	; 0xfe3

 WR_ON;
    2b04:	e503cfe7 	str	ip, [r3, #-4071]	; 0xfe7
 RS_ON; // Data
    2b08:	e5039fe7 	str	r9, [r3, #-4071]	; 0xfe7
 FIOCLR = (0xFFFF<<NT35510_DT);
    2b0c:	e5036fe3 	str	r6, [r3, #-4067]	; 0xfe3
 FIOSET = (data  <<NT35510_DT);
    2b10:	e503bfe7 	str	fp, [r3, #-4071]	; 0xfe7
 WR_OFF;
    2b14:	e503cfe3 	str	ip, [r3, #-4067]	; 0xfe3

 WR_ON; 
    2b18:	e503cfe7 	str	ip, [r3, #-4071]	; 0xfe7
 WR_ON;
}
// ---------------------------------------------------
void NT35510_Reg( unsigned short cmd, unsigned short data)
{
 RS_OFF; // Comando
    2b1c:	e5039fe3 	str	r9, [r3, #-4067]	; 0xfe3
 FIOCLR = (0xFFFF <<NT35510_DT);
    2b20:	e5036fe3 	str	r6, [r3, #-4067]	; 0xfe3
 FIOSET = (cmd    <<NT35510_DT);
    2b24:	e5031fe7 	str	r1, [r3, #-4071]	; 0xfe7
    2b28:	e2811801 	add	r1, r1, #65536	; 0x10000
 WR_OFF;
    2b2c:	e503cfe3 	str	ip, [r3, #-4067]	; 0xfe3

 WR_ON;
    2b30:	e503cfe7 	str	ip, [r3, #-4071]	; 0xfe7
 RS_ON; // Data
    2b34:	e5039fe7 	str	r9, [r3, #-4071]	; 0xfe7
 FIOCLR = (0xFFFF<<NT35510_DT);
    2b38:	e5036fe3 	str	r6, [r3, #-4067]	; 0xfe3
 FIOSET = (data  <<NT35510_DT);
    2b3c:	e503afe7 	str	sl, [r3, #-4071]	; 0xfe7
 WR_OFF;
    2b40:	e503cfe3 	str	ip, [r3, #-4067]	; 0xfe3

 WR_ON; 
    2b44:	e503cfe7 	str	ip, [r3, #-4071]	; 0xfe7
 WR_ON;
}
// ---------------------------------------------------
void NT35510_Reg( unsigned short cmd, unsigned short data)
{
 RS_OFF; // Comando
    2b48:	e5039fe3 	str	r9, [r3, #-4067]	; 0xfe3
 FIOCLR = (0xFFFF <<NT35510_DT);
    2b4c:	e5036fe3 	str	r6, [r3, #-4067]	; 0xfe3
 FIOSET = (cmd    <<NT35510_DT);
    2b50:	e5031fe7 	str	r1, [r3, #-4071]	; 0xfe7
 WR_OFF;

 WR_ON;
 RS_ON; // Data
 FIOCLR = (0xFFFF<<NT35510_DT);
 FIOSET = (data  <<NT35510_DT);
    2b54:	e3a01873 	mov	r1, #7536640	; 0x730000
void NT35510_Reg( unsigned short cmd, unsigned short data)
{
 RS_OFF; // Comando
 FIOCLR = (0xFFFF <<NT35510_DT);
 FIOSET = (cmd    <<NT35510_DT);
 WR_OFF;
    2b58:	e503cfe3 	str	ip, [r3, #-4067]	; 0xfe3

 WR_ON;
    2b5c:	e503cfe7 	str	ip, [r3, #-4071]	; 0xfe7
 RS_ON; // Data
    2b60:	e5039fe7 	str	r9, [r3, #-4071]	; 0xfe7
 FIOCLR = (0xFFFF<<NT35510_DT);
    2b64:	e5036fe3 	str	r6, [r3, #-4067]	; 0xfe3
 FIOSET = (data  <<NT35510_DT);
    2b68:	e5031fe7 	str	r1, [r3, #-4071]	; 0xfe7
// ---------------------------------------------------
void NT35510_Reg( unsigned short cmd, unsigned short data)
{
 RS_OFF; // Comando
 FIOCLR = (0xFFFF <<NT35510_DT);
 FIOSET = (cmd    <<NT35510_DT);
    2b6c:	e51f16bc 	ldr	r1, [pc, #-1724]	; 24b8 <TFT_Init+0x13d0>

 WR_ON;
 RS_ON; // Data
 FIOCLR = (0xFFFF<<NT35510_DT);
 FIOSET = (data  <<NT35510_DT);
 WR_OFF;
    2b70:	e503cfe3 	str	ip, [r3, #-4067]	; 0xfe3

 WR_ON; 
    2b74:	e503cfe7 	str	ip, [r3, #-4071]	; 0xfe7
 WR_ON;
}
// ---------------------------------------------------
void NT35510_Reg( unsigned short cmd, unsigned short data)
{
 RS_OFF; // Comando
    2b78:	e5039fe3 	str	r9, [r3, #-4067]	; 0xfe3
 FIOCLR = (0xFFFF <<NT35510_DT);
    2b7c:	e5036fe3 	str	r6, [r3, #-4067]	; 0xfe3
 FIOSET = (cmd    <<NT35510_DT);
    2b80:	e5031fe7 	str	r1, [r3, #-4071]	; 0xfe7
    2b84:	e2811801 	add	r1, r1, #65536	; 0x10000
 WR_OFF;
    2b88:	e503cfe3 	str	ip, [r3, #-4067]	; 0xfe3

 WR_ON;
    2b8c:	e503cfe7 	str	ip, [r3, #-4071]	; 0xfe7
 RS_ON; // Data
    2b90:	e5039fe7 	str	r9, [r3, #-4071]	; 0xfe7
 FIOCLR = (0xFFFF<<NT35510_DT);
    2b94:	e5036fe3 	str	r6, [r3, #-4067]	; 0xfe3
 FIOSET = (data  <<NT35510_DT);
    2b98:	e503afe7 	str	sl, [r3, #-4071]	; 0xfe7
 WR_OFF;
    2b9c:	e503cfe3 	str	ip, [r3, #-4067]	; 0xfe3
 WR_OFF;

 WR_ON;
 RS_ON; // Data
 FIOCLR = (0xFFFF<<NT35510_DT);
 FIOSET = (data  <<NT35510_DT);
    2ba0:	e3a0a725 	mov	sl, #9699328	; 0x940000
 WR_OFF;

 WR_ON; 
    2ba4:	e503cfe7 	str	ip, [r3, #-4071]	; 0xfe7
 WR_ON;
}
// ---------------------------------------------------
void NT35510_Reg( unsigned short cmd, unsigned short data)
{
 RS_OFF; // Comando
    2ba8:	e5039fe3 	str	r9, [r3, #-4067]	; 0xfe3
 FIOCLR = (0xFFFF <<NT35510_DT);
    2bac:	e5036fe3 	str	r6, [r3, #-4067]	; 0xfe3
 FIOSET = (cmd    <<NT35510_DT);
    2bb0:	e5031fe7 	str	r1, [r3, #-4071]	; 0xfe7
    2bb4:	e2811801 	add	r1, r1, #65536	; 0x10000
 WR_OFF;
    2bb8:	e503cfe3 	str	ip, [r3, #-4067]	; 0xfe3

 WR_ON;
 RS_ON; // Data
 FIOCLR = (0xFFFF<<NT35510_DT);
 FIOSET = (data  <<NT35510_DT);
    2bbc:	e3a0b803 	mov	fp, #196608	; 0x30000
 RS_OFF; // Comando
 FIOCLR = (0xFFFF <<NT35510_DT);
 FIOSET = (cmd    <<NT35510_DT);
 WR_OFF;

 WR_ON;
    2bc0:	e503cfe7 	str	ip, [r3, #-4071]	; 0xfe7
 RS_ON; // Data
    2bc4:	e5039fe7 	str	r9, [r3, #-4071]	; 0xfe7
 FIOCLR = (0xFFFF<<NT35510_DT);
    2bc8:	e5036fe3 	str	r6, [r3, #-4067]	; 0xfe3
 FIOSET = (data  <<NT35510_DT);
    2bcc:	e503afe7 	str	sl, [r3, #-4071]	; 0xfe7
 WR_OFF;
    2bd0:	e503cfe3 	str	ip, [r3, #-4067]	; 0xfe3

 WR_ON; 
    2bd4:	e503cfe7 	str	ip, [r3, #-4071]	; 0xfe7
 WR_ON;
}
// ---------------------------------------------------
void NT35510_Reg( unsigned short cmd, unsigned short data)
{
 RS_OFF; // Comando
    2bd8:	e5039fe3 	str	r9, [r3, #-4067]	; 0xfe3
 FIOCLR = (0xFFFF <<NT35510_DT);
    2bdc:	e5036fe3 	str	r6, [r3, #-4067]	; 0xfe3
 FIOSET = (cmd    <<NT35510_DT);
    2be0:	e5031fe7 	str	r1, [r3, #-4071]	; 0xfe7
    2be4:	e2811801 	add	r1, r1, #65536	; 0x10000
 WR_OFF;
    2be8:	e503cfe3 	str	ip, [r3, #-4067]	; 0xfe3

 WR_ON;
    2bec:	e503cfe7 	str	ip, [r3, #-4071]	; 0xfe7
 RS_ON; // Data
    2bf0:	e5039fe7 	str	r9, [r3, #-4071]	; 0xfe7
 FIOCLR = (0xFFFF<<NT35510_DT);
    2bf4:	e5036fe3 	str	r6, [r3, #-4067]	; 0xfe3
 FIOSET = (data  <<NT35510_DT);
    2bf8:	e503bfe7 	str	fp, [r3, #-4071]	; 0xfe7
 WR_OFF;
    2bfc:	e503cfe3 	str	ip, [r3, #-4067]	; 0xfe3

 WR_ON; 
    2c00:	e503cfe7 	str	ip, [r3, #-4071]	; 0xfe7
 WR_ON;
}
// ---------------------------------------------------
void NT35510_Reg( unsigned short cmd, unsigned short data)
{
 RS_OFF; // Comando
    2c04:	e5039fe3 	str	r9, [r3, #-4067]	; 0xfe3
 FIOCLR = (0xFFFF <<NT35510_DT);
    2c08:	e5036fe3 	str	r6, [r3, #-4067]	; 0xfe3
 FIOSET = (cmd    <<NT35510_DT);
    2c0c:	e5031fe7 	str	r1, [r3, #-4071]	; 0xfe7
 WR_OFF;

 WR_ON;
 RS_ON; // Data
 FIOCLR = (0xFFFF<<NT35510_DT);
 FIOSET = (data  <<NT35510_DT);
    2c10:	e3a0189f 	mov	r1, #10420224	; 0x9f0000
void NT35510_Reg( unsigned short cmd, unsigned short data)
{
 RS_OFF; // Comando
 FIOCLR = (0xFFFF <<NT35510_DT);
 FIOSET = (cmd    <<NT35510_DT);
 WR_OFF;
    2c14:	e503cfe3 	str	ip, [r3, #-4067]	; 0xfe3

 WR_ON;
    2c18:	e503cfe7 	str	ip, [r3, #-4071]	; 0xfe7
 RS_ON; // Data
    2c1c:	e5039fe7 	str	r9, [r3, #-4071]	; 0xfe7
 FIOCLR = (0xFFFF<<NT35510_DT);
    2c20:	e5036fe3 	str	r6, [r3, #-4067]	; 0xfe3
 FIOSET = (data  <<NT35510_DT);
    2c24:	e5031fe7 	str	r1, [r3, #-4071]	; 0xfe7
// ---------------------------------------------------
void NT35510_Reg( unsigned short cmd, unsigned short data)
{
 RS_OFF; // Comando
 FIOCLR = (0xFFFF <<NT35510_DT);
 FIOSET = (cmd    <<NT35510_DT);
    2c28:	e51f1774 	ldr	r1, [pc, #-1908]	; 24bc <TFT_Init+0x13d4>

 WR_ON;
 RS_ON; // Data
 FIOCLR = (0xFFFF<<NT35510_DT);
 FIOSET = (data  <<NT35510_DT);
 WR_OFF;
    2c2c:	e503cfe3 	str	ip, [r3, #-4067]	; 0xfe3

 WR_ON; 
    2c30:	e503cfe7 	str	ip, [r3, #-4071]	; 0xfe7
 WR_ON;
}
// ---------------------------------------------------
void NT35510_Reg( unsigned short cmd, unsigned short data)
{
 RS_OFF; // Comando
    2c34:	e5039fe3 	str	r9, [r3, #-4067]	; 0xfe3
 FIOCLR = (0xFFFF <<NT35510_DT);
    2c38:	e5036fe3 	str	r6, [r3, #-4067]	; 0xfe3
 FIOSET = (cmd    <<NT35510_DT);
    2c3c:	e5031fe7 	str	r1, [r3, #-4071]	; 0xfe7
    2c40:	e2811801 	add	r1, r1, #65536	; 0x10000
 WR_OFF;
    2c44:	e503cfe3 	str	ip, [r3, #-4067]	; 0xfe3

 WR_ON;
 RS_ON; // Data
 FIOCLR = (0xFFFF<<NT35510_DT);
 FIOSET = (data  <<NT35510_DT);
    2c48:	e3a0a8b3 	mov	sl, #11730944	; 0xb30000
 RS_OFF; // Comando
 FIOCLR = (0xFFFF <<NT35510_DT);
 FIOSET = (cmd    <<NT35510_DT);
 WR_OFF;

 WR_ON;
    2c4c:	e503cfe7 	str	ip, [r3, #-4071]	; 0xfe7
 RS_ON; // Data
    2c50:	e5039fe7 	str	r9, [r3, #-4071]	; 0xfe7
 FIOCLR = (0xFFFF<<NT35510_DT);
    2c54:	e5036fe3 	str	r6, [r3, #-4067]	; 0xfe3
 FIOSET = (data  <<NT35510_DT);
    2c58:	e503bfe7 	str	fp, [r3, #-4071]	; 0xfe7
 WR_OFF;
    2c5c:	e503cfe3 	str	ip, [r3, #-4067]	; 0xfe3

 WR_ON; 
    2c60:	e503cfe7 	str	ip, [r3, #-4071]	; 0xfe7
 WR_ON;
}
// ---------------------------------------------------
void NT35510_Reg( unsigned short cmd, unsigned short data)
{
 RS_OFF; // Comando
    2c64:	e5039fe3 	str	r9, [r3, #-4067]	; 0xfe3
 FIOCLR = (0xFFFF <<NT35510_DT);
    2c68:	e5036fe3 	str	r6, [r3, #-4067]	; 0xfe3
 FIOSET = (cmd    <<NT35510_DT);
    2c6c:	e5031fe7 	str	r1, [r3, #-4071]	; 0xfe7
    2c70:	e2811801 	add	r1, r1, #65536	; 0x10000
 WR_ON;
}
// ---------------------------------------------------
void NT35510_Reg( unsigned short cmd, unsigned short data)
{
 RS_OFF; // Comando
    2c74:	e1a02003 	mov	r2, r3
 FIOCLR = (0xFFFF <<NT35510_DT);
 FIOSET = (cmd    <<NT35510_DT);
 WR_OFF;
    2c78:	e503cfe3 	str	ip, [r3, #-4067]	; 0xfe3

 WR_ON;
    2c7c:	e503cfe7 	str	ip, [r3, #-4071]	; 0xfe7
 RS_ON; // Data
    2c80:	e5039fe7 	str	r9, [r3, #-4071]	; 0xfe7
 FIOCLR = (0xFFFF<<NT35510_DT);
    2c84:	e5036fe3 	str	r6, [r3, #-4067]	; 0xfe3
 FIOSET = (data  <<NT35510_DT);
    2c88:	e503afe7 	str	sl, [r3, #-4071]	; 0xfe7
 WR_OFF;
    2c8c:	e503cfe3 	str	ip, [r3, #-4067]	; 0xfe3

 WR_ON; 
    2c90:	e503cfe7 	str	ip, [r3, #-4071]	; 0xfe7
 WR_ON;
}
// ---------------------------------------------------
void NT35510_Reg( unsigned short cmd, unsigned short data)
{
 RS_OFF; // Comando
    2c94:	e5039fe3 	str	r9, [r3, #-4067]	; 0xfe3
 FIOCLR = (0xFFFF <<NT35510_DT);
    2c98:	e5036fe3 	str	r6, [r3, #-4067]	; 0xfe3
 FIOSET = (cmd    <<NT35510_DT);
    2c9c:	e5031fe7 	str	r1, [r3, #-4071]	; 0xfe7
 WR_OFF;
    2ca0:	e503cfe3 	str	ip, [r3, #-4067]	; 0xfe3
// ---------------------------------------------------
void NT35510_Reg( unsigned short cmd, unsigned short data)
{
 RS_OFF; // Comando
 FIOCLR = (0xFFFF <<NT35510_DT);
 FIOSET = (cmd    <<NT35510_DT);
    2ca4:	e2811801 	add	r1, r1, #65536	; 0x10000
 WR_OFF;

 WR_ON;
    2ca8:	e503cfe7 	str	ip, [r3, #-4071]	; 0xfe7
 RS_ON; // Data
    2cac:	e5039fe7 	str	r9, [r3, #-4071]	; 0xfe7
 FIOCLR = (0xFFFF<<NT35510_DT);
    2cb0:	e5036fe3 	str	r6, [r3, #-4067]	; 0xfe3
 FIOSET = (data  <<NT35510_DT);
    2cb4:	e503bfe7 	str	fp, [r3, #-4071]	; 0xfe7
    2cb8:	e3a0b8b9 	mov	fp, #12124160	; 0xb90000
 RS_OFF; // Comando
 FIOCLR = (0xFFFF <<NT35510_DT);
 FIOSET = (cmd    <<NT35510_DT);
 WR_OFF;

 WR_ON;
    2cbc:	e1a04003 	mov	r4, r3
 RS_ON; // Data
 FIOCLR = (0xFFFF<<NT35510_DT);
 FIOSET = (data  <<NT35510_DT);
 WR_OFF;
    2cc0:	e503cfe3 	str	ip, [r3, #-4067]	; 0xfe3

 WR_ON; 
    2cc4:	e503cfe7 	str	ip, [r3, #-4071]	; 0xfe7
 WR_ON;
}
// ---------------------------------------------------
void NT35510_Reg( unsigned short cmd, unsigned short data)
{
 RS_OFF; // Comando
    2cc8:	e5039fe3 	str	r9, [r3, #-4067]	; 0xfe3
 FIOCLR = (0xFFFF <<NT35510_DT);
    2ccc:	e5036fe3 	str	r6, [r3, #-4067]	; 0xfe3
 FIOSET = (cmd    <<NT35510_DT);
    2cd0:	e5031fe7 	str	r1, [r3, #-4071]	; 0xfe7
 WR_OFF;
    2cd4:	e503cfe3 	str	ip, [r3, #-4067]	; 0xfe3

 WR_ON;
    2cd8:	e503cfe7 	str	ip, [r3, #-4071]	; 0xfe7
 RS_ON; // Data
    2cdc:	e5039fe7 	str	r9, [r3, #-4071]	; 0xfe7
 FIOCLR = (0xFFFF<<NT35510_DT);
    2ce0:	e5036fe3 	str	r6, [r3, #-4067]	; 0xfe3
 FIOSET = (data  <<NT35510_DT);
    2ce4:	e503bfe7 	str	fp, [r3, #-4071]	; 0xfe7
 WR_OFF;
    2ce8:	e503cfe3 	str	ip, [r3, #-4067]	; 0xfe3

 WR_ON; 
    2cec:	e503cfe7 	str	ip, [r3, #-4071]	; 0xfe7
 WR_ON;
}
// ---------------------------------------------------
void NT35510_Reg( unsigned short cmd, unsigned short data)
{
 RS_OFF; // Comando
    2cf0:	e5029fe3 	str	r9, [r2, #-4067]	; 0xfe3
 FIOCLR = (0xFFFF <<NT35510_DT);
    2cf4:	e5036fe3 	str	r6, [r3, #-4067]	; 0xfe3
 FIOSET = (cmd    <<NT35510_DT);
    2cf8:	e51f3840 	ldr	r3, [pc, #-2112]	; 24c0 <TFT_Init+0x13d8>
    2cfc:	e5043fe7 	str	r3, [r4, #-4071]	; 0xfe7
 WR_OFF;

 WR_ON;
 RS_ON; // Data
 FIOCLR = (0xFFFF<<NT35510_DT);
 FIOSET = (data  <<NT35510_DT);
    2d00:	e3a03803 	mov	r3, #196608	; 0x30000
void NT35510_Reg( unsigned short cmd, unsigned short data)
{
 RS_OFF; // Comando
 FIOCLR = (0xFFFF <<NT35510_DT);
 FIOSET = (cmd    <<NT35510_DT);
 WR_OFF;
    2d04:	e502cfe3 	str	ip, [r2, #-4067]	; 0xfe3

 WR_ON;
    2d08:	e502cfe7 	str	ip, [r2, #-4071]	; 0xfe7
 RS_ON; // Data
    2d0c:	e5029fe7 	str	r9, [r2, #-4071]	; 0xfe7
 FIOCLR = (0xFFFF<<NT35510_DT);
    2d10:	e5046fe3 	str	r6, [r4, #-4067]	; 0xfe3
 FIOSET = (data  <<NT35510_DT);
    2d14:	e5043fe7 	str	r3, [r4, #-4071]	; 0xfe7
// ---------------------------------------------------
void NT35510_Reg( unsigned short cmd, unsigned short data)
{
 RS_OFF; // Comando
 FIOCLR = (0xFFFF <<NT35510_DT);
 FIOSET = (cmd    <<NT35510_DT);
    2d18:	e51f385c 	ldr	r3, [pc, #-2140]	; 24c4 <TFT_Init+0x13dc>

 WR_ON;
 RS_ON; // Data
 FIOCLR = (0xFFFF<<NT35510_DT);
 FIOSET = (data  <<NT35510_DT);
 WR_OFF;
    2d1c:	e502cfe3 	str	ip, [r2, #-4067]	; 0xfe3
 WR_OFF;

 WR_ON;
 RS_ON; // Data
 FIOCLR = (0xFFFF<<NT35510_DT);
 FIOSET = (data  <<NT35510_DT);
    2d20:	e3a0a8c1 	mov	sl, #12648448	; 0xc10000
 WR_OFF;

 WR_ON; 
    2d24:	e502cfe7 	str	ip, [r2, #-4071]	; 0xfe7
 WR_ON;
}
// ---------------------------------------------------
void NT35510_Reg( unsigned short cmd, unsigned short data)
{
 RS_OFF; // Comando
    2d28:	e5029fe3 	str	r9, [r2, #-4067]	; 0xfe3
 FIOCLR = (0xFFFF <<NT35510_DT);
    2d2c:	e5046fe3 	str	r6, [r4, #-4067]	; 0xfe3
 FIOSET = (cmd    <<NT35510_DT);
    2d30:	e5043fe7 	str	r3, [r4, #-4071]	; 0xfe7
    2d34:	e3a034d6 	mov	r3, #-704643072	; 0xd6000000
 WR_OFF;
    2d38:	e502cfe3 	str	ip, [r2, #-4067]	; 0xfe3

 WR_ON;
 RS_ON; // Data
 FIOCLR = (0xFFFF<<NT35510_DT);
 FIOSET = (data  <<NT35510_DT);
    2d3c:	e3a0b000 	mov	fp, #0
 RS_OFF; // Comando
 FIOCLR = (0xFFFF <<NT35510_DT);
 FIOSET = (cmd    <<NT35510_DT);
 WR_OFF;

 WR_ON;
    2d40:	e502cfe7 	str	ip, [r2, #-4071]	; 0xfe7
 RS_ON; // Data
    2d44:	e5029fe7 	str	r9, [r2, #-4071]	; 0xfe7
 FIOCLR = (0xFFFF<<NT35510_DT);
    2d48:	e5046fe3 	str	r6, [r4, #-4067]	; 0xfe3
 FIOSET = (data  <<NT35510_DT);
    2d4c:	e504afe7 	str	sl, [r4, #-4071]	; 0xfe7
 WR_OFF;
    2d50:	e502cfe3 	str	ip, [r2, #-4067]	; 0xfe3

 WR_ON; 
    2d54:	e502cfe7 	str	ip, [r2, #-4071]	; 0xfe7
 WR_ON;
}
// ---------------------------------------------------
void NT35510_Reg( unsigned short cmd, unsigned short data)
{
 RS_OFF; // Comando
    2d58:	e5029fe3 	str	r9, [r2, #-4067]	; 0xfe3
 FIOCLR = (0xFFFF <<NT35510_DT);
    2d5c:	e5046fe3 	str	r6, [r4, #-4067]	; 0xfe3
 FIOSET = (cmd    <<NT35510_DT);
    2d60:	e5043fe7 	str	r3, [r4, #-4071]	; 0xfe7
    2d64:	e2833801 	add	r3, r3, #65536	; 0x10000
 WR_OFF;
    2d68:	e502cfe3 	str	ip, [r2, #-4067]	; 0xfe3

 WR_ON;
    2d6c:	e502cfe7 	str	ip, [r2, #-4071]	; 0xfe7
 RS_ON; // Data
    2d70:	e5029fe7 	str	r9, [r2, #-4071]	; 0xfe7
 FIOCLR = (0xFFFF<<NT35510_DT);
    2d74:	e5046fe3 	str	r6, [r4, #-4067]	; 0xfe3
 FIOSET = (data  <<NT35510_DT);
    2d78:	e504bfe7 	str	fp, [r4, #-4071]	; 0xfe7
 WR_OFF;
    2d7c:	e502cfe3 	str	ip, [r2, #-4067]	; 0xfe3

 WR_ON; 
    2d80:	e502cfe7 	str	ip, [r2, #-4071]	; 0xfe7
 WR_ON;
}
// ---------------------------------------------------
void NT35510_Reg( unsigned short cmd, unsigned short data)
{
 RS_OFF; // Comando
    2d84:	e5029fe3 	str	r9, [r2, #-4067]	; 0xfe3
 FIOCLR = (0xFFFF <<NT35510_DT);
    2d88:	e5046fe3 	str	r6, [r4, #-4067]	; 0xfe3
 FIOSET = (cmd    <<NT35510_DT);
    2d8c:	e5043fe7 	str	r3, [r4, #-4071]	; 0xfe7
    2d90:	e51f38d0 	ldr	r3, [pc, #-2256]	; 24c8 <TFT_Init+0x13e0>
 WR_OFF;

 WR_ON;
 RS_ON; // Data
 FIOCLR = (0xFFFF<<NT35510_DT);
 FIOSET = (data  <<NT35510_DT);
    2d94:	e3a01837 	mov	r1, #3604480	; 0x370000
void NT35510_Reg( unsigned short cmd, unsigned short data)
{
 RS_OFF; // Comando
 FIOCLR = (0xFFFF <<NT35510_DT);
 FIOSET = (cmd    <<NT35510_DT);
 WR_OFF;
    2d98:	e502cfe3 	str	ip, [r2, #-4067]	; 0xfe3

 WR_ON;
    2d9c:	e502cfe7 	str	ip, [r2, #-4071]	; 0xfe7
 RS_ON; // Data
    2da0:	e5029fe7 	str	r9, [r2, #-4071]	; 0xfe7
 FIOCLR = (0xFFFF<<NT35510_DT);
    2da4:	e5046fe3 	str	r6, [r4, #-4067]	; 0xfe3
 FIOSET = (data  <<NT35510_DT);
    2da8:	e5041fe7 	str	r1, [r4, #-4071]	; 0xfe7
 WR_OFF;
    2dac:	e502cfe3 	str	ip, [r2, #-4067]	; 0xfe3

 WR_ON; 
    2db0:	e502cfe7 	str	ip, [r2, #-4071]	; 0xfe7
 WR_ON;
}
// ---------------------------------------------------
void NT35510_Reg( unsigned short cmd, unsigned short data)
{
 RS_OFF; // Comando
    2db4:	e5029fe3 	str	r9, [r2, #-4067]	; 0xfe3
 FIOCLR = (0xFFFF <<NT35510_DT);
    2db8:	e5046fe3 	str	r6, [r4, #-4067]	; 0xfe3
 FIOSET = (cmd    <<NT35510_DT);
    2dbc:	e5043fe7 	str	r3, [r4, #-4071]	; 0xfe7
    2dc0:	e2833801 	add	r3, r3, #65536	; 0x10000
 WR_OFF;
    2dc4:	e502cfe3 	str	ip, [r2, #-4067]	; 0xfe3

 WR_ON;
    2dc8:	e502cfe7 	str	ip, [r2, #-4071]	; 0xfe7
 RS_ON; // Data
    2dcc:	e5029fe7 	str	r9, [r2, #-4071]	; 0xfe7
 FIOCLR = (0xFFFF<<NT35510_DT);
    2dd0:	e5046fe3 	str	r6, [r4, #-4067]	; 0xfe3
 FIOSET = (data  <<NT35510_DT);
    2dd4:	e504bfe7 	str	fp, [r4, #-4071]	; 0xfe7
 WR_OFF;
    2dd8:	e502cfe3 	str	ip, [r2, #-4067]	; 0xfe3
 WR_OFF;

 WR_ON;
 RS_ON; // Data
 FIOCLR = (0xFFFF<<NT35510_DT);
 FIOSET = (data  <<NT35510_DT);
    2ddc:	e3a0b852 	mov	fp, #5373952	; 0x520000
 WR_OFF;

 WR_ON; 
    2de0:	e502cfe7 	str	ip, [r2, #-4071]	; 0xfe7
 WR_ON;
}
// ---------------------------------------------------
void NT35510_Reg( unsigned short cmd, unsigned short data)
{
 RS_OFF; // Comando
    2de4:	e5029fe3 	str	r9, [r2, #-4067]	; 0xfe3
 FIOCLR = (0xFFFF <<NT35510_DT);
    2de8:	e5046fe3 	str	r6, [r4, #-4067]	; 0xfe3
 FIOSET = (cmd    <<NT35510_DT);
    2dec:	e5043fe7 	str	r3, [r4, #-4071]	; 0xfe7
    2df0:	e2833801 	add	r3, r3, #65536	; 0x10000
 WR_OFF;
    2df4:	e502cfe3 	str	ip, [r2, #-4067]	; 0xfe3

 WR_ON;
 RS_ON; // Data
 FIOCLR = (0xFFFF<<NT35510_DT);
 FIOSET = (data  <<NT35510_DT);
    2df8:	e3a01000 	mov	r1, #0
 RS_OFF; // Comando
 FIOCLR = (0xFFFF <<NT35510_DT);
 FIOSET = (cmd    <<NT35510_DT);
 WR_OFF;

 WR_ON;
    2dfc:	e502cfe7 	str	ip, [r2, #-4071]	; 0xfe7
 RS_ON; // Data
    2e00:	e5029fe7 	str	r9, [r2, #-4071]	; 0xfe7
 FIOCLR = (0xFFFF<<NT35510_DT);
    2e04:	e5046fe3 	str	r6, [r4, #-4067]	; 0xfe3
 FIOSET = (data  <<NT35510_DT);
    2e08:	e504bfe7 	str	fp, [r4, #-4071]	; 0xfe7
 WR_OFF;
    2e0c:	e502cfe3 	str	ip, [r2, #-4067]	; 0xfe3

 WR_ON; 
    2e10:	e502cfe7 	str	ip, [r2, #-4071]	; 0xfe7
 WR_ON;
}
// ---------------------------------------------------
void NT35510_Reg( unsigned short cmd, unsigned short data)
{
 RS_OFF; // Comando
    2e14:	e5029fe3 	str	r9, [r2, #-4067]	; 0xfe3
 FIOCLR = (0xFFFF <<NT35510_DT);
    2e18:	e5046fe3 	str	r6, [r4, #-4067]	; 0xfe3
 FIOSET = (cmd    <<NT35510_DT);
    2e1c:	e5043fe7 	str	r3, [r4, #-4071]	; 0xfe7
    2e20:	e2833801 	add	r3, r3, #65536	; 0x10000
 WR_OFF;
    2e24:	e502cfe3 	str	ip, [r2, #-4067]	; 0xfe3

 WR_ON;
    2e28:	e502cfe7 	str	ip, [r2, #-4071]	; 0xfe7
 RS_ON; // Data
    2e2c:	e5029fe7 	str	r9, [r2, #-4071]	; 0xfe7
 FIOCLR = (0xFFFF<<NT35510_DT);
    2e30:	e5046fe3 	str	r6, [r4, #-4067]	; 0xfe3
 FIOSET = (data  <<NT35510_DT);
    2e34:	e5041fe7 	str	r1, [r4, #-4071]	; 0xfe7
 WR_OFF;
    2e38:	e502cfe3 	str	ip, [r2, #-4067]	; 0xfe3

 WR_ON; 
    2e3c:	e502cfe7 	str	ip, [r2, #-4071]	; 0xfe7
 WR_ON;
}
// ---------------------------------------------------
void NT35510_Reg( unsigned short cmd, unsigned short data)
{
 RS_OFF; // Comando
    2e40:	e5029fe3 	str	r9, [r2, #-4067]	; 0xfe3
 FIOCLR = (0xFFFF <<NT35510_DT);
    2e44:	e5046fe3 	str	r6, [r4, #-4067]	; 0xfe3
 FIOSET = (cmd    <<NT35510_DT);
    2e48:	e5043fe7 	str	r3, [r4, #-4071]	; 0xfe7
 WR_OFF;

 WR_ON;
 RS_ON; // Data
 FIOCLR = (0xFFFF<<NT35510_DT);
 FIOSET = (data  <<NT35510_DT);
    2e4c:	e3a0387b 	mov	r3, #8060928	; 0x7b0000
void NT35510_Reg( unsigned short cmd, unsigned short data)
{
 RS_OFF; // Comando
 FIOCLR = (0xFFFF <<NT35510_DT);
 FIOSET = (cmd    <<NT35510_DT);
 WR_OFF;
    2e50:	e502cfe3 	str	ip, [r2, #-4067]	; 0xfe3

 WR_ON;
    2e54:	e502cfe7 	str	ip, [r2, #-4071]	; 0xfe7
 RS_ON; // Data
    2e58:	e5029fe7 	str	r9, [r2, #-4071]	; 0xfe7
 FIOCLR = (0xFFFF<<NT35510_DT);
    2e5c:	e5046fe3 	str	r6, [r4, #-4067]	; 0xfe3
 FIOSET = (data  <<NT35510_DT);
    2e60:	e5043fe7 	str	r3, [r4, #-4071]	; 0xfe7
// ---------------------------------------------------
void NT35510_Reg( unsigned short cmd, unsigned short data)
{
 RS_OFF; // Comando
 FIOCLR = (0xFFFF <<NT35510_DT);
 FIOSET = (cmd    <<NT35510_DT);
    2e64:	e51f39a0 	ldr	r3, [pc, #-2464]	; 24cc <TFT_Init+0x13e4>

 WR_ON;
 RS_ON; // Data
 FIOCLR = (0xFFFF<<NT35510_DT);
 FIOSET = (data  <<NT35510_DT);
 WR_OFF;
    2e68:	e502cfe3 	str	ip, [r2, #-4067]	; 0xfe3

 WR_ON; 
    2e6c:	e502cfe7 	str	ip, [r2, #-4071]	; 0xfe7
 WR_ON;
}
// ---------------------------------------------------
void NT35510_Reg( unsigned short cmd, unsigned short data)
{
 RS_OFF; // Comando
    2e70:	e5029fe3 	str	r9, [r2, #-4067]	; 0xfe3
 FIOCLR = (0xFFFF <<NT35510_DT);
    2e74:	e5046fe3 	str	r6, [r4, #-4067]	; 0xfe3
 FIOSET = (cmd    <<NT35510_DT);
    2e78:	e5043fe7 	str	r3, [r4, #-4071]	; 0xfe7
    2e7c:	e2833801 	add	r3, r3, #65536	; 0x10000
 WR_OFF;
    2e80:	e502cfe3 	str	ip, [r2, #-4067]	; 0xfe3

 WR_ON;
 RS_ON; // Data
 FIOCLR = (0xFFFF<<NT35510_DT);
 FIOSET = (data  <<NT35510_DT);
    2e84:	e3a0a899 	mov	sl, #10027008	; 0x990000
 RS_OFF; // Comando
 FIOCLR = (0xFFFF <<NT35510_DT);
 FIOSET = (cmd    <<NT35510_DT);
 WR_OFF;

 WR_ON;
    2e88:	e502cfe7 	str	ip, [r2, #-4071]	; 0xfe7
 RS_ON; // Data
    2e8c:	e5029fe7 	str	r9, [r2, #-4071]	; 0xfe7
 FIOCLR = (0xFFFF<<NT35510_DT);
    2e90:	e5046fe3 	str	r6, [r4, #-4067]	; 0xfe3
 FIOSET = (data  <<NT35510_DT);
    2e94:	e5041fe7 	str	r1, [r4, #-4071]	; 0xfe7
 WR_OFF;
    2e98:	e502cfe3 	str	ip, [r2, #-4067]	; 0xfe3

 WR_ON; 
    2e9c:	e502cfe7 	str	ip, [r2, #-4071]	; 0xfe7
 WR_ON;
}
// ---------------------------------------------------
void NT35510_Reg( unsigned short cmd, unsigned short data)
{
 RS_OFF; // Comando
    2ea0:	e5029fe3 	str	r9, [r2, #-4067]	; 0xfe3
 FIOCLR = (0xFFFF <<NT35510_DT);
    2ea4:	e5046fe3 	str	r6, [r4, #-4067]	; 0xfe3
 FIOSET = (cmd    <<NT35510_DT);
    2ea8:	e5043fe7 	str	r3, [r4, #-4071]	; 0xfe7
    2eac:	e2833801 	add	r3, r3, #65536	; 0x10000
 WR_OFF;
    2eb0:	e502cfe3 	str	ip, [r2, #-4067]	; 0xfe3

 WR_ON;
    2eb4:	e502cfe7 	str	ip, [r2, #-4071]	; 0xfe7
 RS_ON; // Data
    2eb8:	e5029fe7 	str	r9, [r2, #-4071]	; 0xfe7
 FIOCLR = (0xFFFF<<NT35510_DT);
    2ebc:	e5046fe3 	str	r6, [r4, #-4067]	; 0xfe3
 FIOSET = (data  <<NT35510_DT);
    2ec0:	e504afe7 	str	sl, [r4, #-4071]	; 0xfe7
 WR_OFF;
    2ec4:	e502cfe3 	str	ip, [r2, #-4067]	; 0xfe3

 WR_ON; 
    2ec8:	e502cfe7 	str	ip, [r2, #-4071]	; 0xfe7
 WR_ON;
}
// ---------------------------------------------------
void NT35510_Reg( unsigned short cmd, unsigned short data)
{
 RS_OFF; // Comando
    2ecc:	e5029fe3 	str	r9, [r2, #-4067]	; 0xfe3
 FIOCLR = (0xFFFF <<NT35510_DT);
    2ed0:	e5046fe3 	str	r6, [r4, #-4067]	; 0xfe3
 FIOSET = (cmd    <<NT35510_DT);
    2ed4:	e5043fe7 	str	r3, [r4, #-4071]	; 0xfe7
    2ed8:	e2833801 	add	r3, r3, #65536	; 0x10000
 WR_OFF;
    2edc:	e502cfe3 	str	ip, [r2, #-4067]	; 0xfe3

 WR_ON;
    2ee0:	e502cfe7 	str	ip, [r2, #-4071]	; 0xfe7
 RS_ON; // Data
    2ee4:	e5029fe7 	str	r9, [r2, #-4071]	; 0xfe7
 FIOCLR = (0xFFFF<<NT35510_DT);
    2ee8:	e5046fe3 	str	r6, [r4, #-4067]	; 0xfe3
 FIOSET = (data  <<NT35510_DT);
    2eec:	e5041fe7 	str	r1, [r4, #-4071]	; 0xfe7
 WR_OFF;
    2ef0:	e502cfe3 	str	ip, [r2, #-4067]	; 0xfe3
 WR_OFF;

 WR_ON;
 RS_ON; // Data
 FIOCLR = (0xFFFF<<NT35510_DT);
 FIOSET = (data  <<NT35510_DT);
    2ef4:	e3a018b1 	mov	r1, #11599872	; 0xb10000
 WR_OFF;

 WR_ON; 
    2ef8:	e502cfe7 	str	ip, [r2, #-4071]	; 0xfe7
 WR_ON;
}
// ---------------------------------------------------
void NT35510_Reg( unsigned short cmd, unsigned short data)
{
 RS_OFF; // Comando
    2efc:	e5029fe3 	str	r9, [r2, #-4067]	; 0xfe3
 FIOCLR = (0xFFFF <<NT35510_DT);
    2f00:	e5046fe3 	str	r6, [r4, #-4067]	; 0xfe3
 FIOSET = (cmd    <<NT35510_DT);
    2f04:	e5043fe7 	str	r3, [r4, #-4071]	; 0xfe7
    2f08:	e2833801 	add	r3, r3, #65536	; 0x10000
 WR_OFF;
    2f0c:	e502cfe3 	str	ip, [r2, #-4067]	; 0xfe3

 WR_ON;
    2f10:	e502cfe7 	str	ip, [r2, #-4071]	; 0xfe7
 RS_ON; // Data
    2f14:	e5029fe7 	str	r9, [r2, #-4071]	; 0xfe7
 FIOCLR = (0xFFFF<<NT35510_DT);
    2f18:	e5046fe3 	str	r6, [r4, #-4067]	; 0xfe3
 FIOSET = (data  <<NT35510_DT);
    2f1c:	e5041fe7 	str	r1, [r4, #-4071]	; 0xfe7
 WR_OFF;
    2f20:	e502cfe3 	str	ip, [r2, #-4067]	; 0xfe3

 WR_ON; 
    2f24:	e502cfe7 	str	ip, [r2, #-4071]	; 0xfe7
 WR_ON;
}
// ---------------------------------------------------
void NT35510_Reg( unsigned short cmd, unsigned short data)
{
 RS_OFF; // Comando
    2f28:	e5029fe3 	str	r9, [r2, #-4067]	; 0xfe3
 FIOCLR = (0xFFFF <<NT35510_DT);
    2f2c:	e5046fe3 	str	r6, [r4, #-4067]	; 0xfe3
 FIOSET = (cmd    <<NT35510_DT);
    2f30:	e5043fe7 	str	r3, [r4, #-4071]	; 0xfe7
 WR_OFF;

 WR_ON;
 RS_ON; // Data
 FIOCLR = (0xFFFF<<NT35510_DT);
 FIOSET = (data  <<NT35510_DT);
    2f34:	e3a03000 	mov	r3, #0
void NT35510_Reg( unsigned short cmd, unsigned short data)
{
 RS_OFF; // Comando
 FIOCLR = (0xFFFF <<NT35510_DT);
 FIOSET = (cmd    <<NT35510_DT);
 WR_OFF;
    2f38:	e502cfe3 	str	ip, [r2, #-4067]	; 0xfe3

 WR_ON;
    2f3c:	e502cfe7 	str	ip, [r2, #-4071]	; 0xfe7
 RS_ON; // Data
    2f40:	e5029fe7 	str	r9, [r2, #-4071]	; 0xfe7
 FIOCLR = (0xFFFF<<NT35510_DT);
    2f44:	e5046fe3 	str	r6, [r4, #-4067]	; 0xfe3
 FIOSET = (data  <<NT35510_DT);
    2f48:	e5043fe7 	str	r3, [r4, #-4071]	; 0xfe7
// ---------------------------------------------------
void NT35510_Reg( unsigned short cmd, unsigned short data)
{
 RS_OFF; // Comando
 FIOCLR = (0xFFFF <<NT35510_DT);
 FIOSET = (cmd    <<NT35510_DT);
    2f4c:	e51f3a84 	ldr	r3, [pc, #-2692]	; 24d0 <TFT_Init+0x13e8>

 WR_ON;
 RS_ON; // Data
 FIOCLR = (0xFFFF<<NT35510_DT);
 FIOSET = (data  <<NT35510_DT);
 WR_OFF;
    2f50:	e502cfe3 	str	ip, [r2, #-4067]	; 0xfe3
 WR_OFF;

 WR_ON;
 RS_ON; // Data
 FIOCLR = (0xFFFF<<NT35510_DT);
 FIOSET = (data  <<NT35510_DT);
    2f54:	e3a0a8d2 	mov	sl, #13762560	; 0xd20000
 WR_OFF;

 WR_ON; 
    2f58:	e502cfe7 	str	ip, [r2, #-4071]	; 0xfe7
 WR_ON;
}
// ---------------------------------------------------
void NT35510_Reg( unsigned short cmd, unsigned short data)
{
 RS_OFF; // Comando
    2f5c:	e5029fe3 	str	r9, [r2, #-4067]	; 0xfe3
 FIOCLR = (0xFFFF <<NT35510_DT);
    2f60:	e5046fe3 	str	r6, [r4, #-4067]	; 0xfe3
 FIOSET = (cmd    <<NT35510_DT);
    2f64:	e5043fe7 	str	r3, [r4, #-4071]	; 0xfe7
    2f68:	e2833801 	add	r3, r3, #65536	; 0x10000
 WR_OFF;
    2f6c:	e502cfe3 	str	ip, [r2, #-4067]	; 0xfe3

 WR_ON;
 RS_ON; // Data
 FIOCLR = (0xFFFF<<NT35510_DT);
 FIOSET = (data  <<NT35510_DT);
    2f70:	e3a0b000 	mov	fp, #0
 RS_OFF; // Comando
 FIOCLR = (0xFFFF <<NT35510_DT);
 FIOSET = (cmd    <<NT35510_DT);
 WR_OFF;

 WR_ON;
    2f74:	e502cfe7 	str	ip, [r2, #-4071]	; 0xfe7
 RS_ON; // Data
    2f78:	e5029fe7 	str	r9, [r2, #-4071]	; 0xfe7
 FIOCLR = (0xFFFF<<NT35510_DT);
    2f7c:	e5046fe3 	str	r6, [r4, #-4067]	; 0xfe3
 FIOSET = (data  <<NT35510_DT);
    2f80:	e504afe7 	str	sl, [r4, #-4071]	; 0xfe7
 WR_OFF;
    2f84:	e502cfe3 	str	ip, [r2, #-4067]	; 0xfe3

 WR_ON; 
    2f88:	e502cfe7 	str	ip, [r2, #-4071]	; 0xfe7
 WR_ON;
}
// ---------------------------------------------------
void NT35510_Reg( unsigned short cmd, unsigned short data)
{
 RS_OFF; // Comando
    2f8c:	e5029fe3 	str	r9, [r2, #-4067]	; 0xfe3
 FIOCLR = (0xFFFF <<NT35510_DT);
    2f90:	e5046fe3 	str	r6, [r4, #-4067]	; 0xfe3
 FIOSET = (cmd    <<NT35510_DT);
    2f94:	e5043fe7 	str	r3, [r4, #-4071]	; 0xfe7
    2f98:	e2833801 	add	r3, r3, #65536	; 0x10000
 WR_OFF;
    2f9c:	e502cfe3 	str	ip, [r2, #-4067]	; 0xfe3

 WR_ON;
    2fa0:	e502cfe7 	str	ip, [r2, #-4071]	; 0xfe7
 RS_ON; // Data
    2fa4:	e5029fe7 	str	r9, [r2, #-4071]	; 0xfe7
 FIOCLR = (0xFFFF<<NT35510_DT);
    2fa8:	e5046fe3 	str	r6, [r4, #-4067]	; 0xfe3
 FIOSET = (data  <<NT35510_DT);
    2fac:	e504bfe7 	str	fp, [r4, #-4071]	; 0xfe7
 WR_OFF;
    2fb0:	e502cfe3 	str	ip, [r2, #-4067]	; 0xfe3

 WR_ON; 
    2fb4:	e502cfe7 	str	ip, [r2, #-4071]	; 0xfe7
 WR_ON;
}
// ---------------------------------------------------
void NT35510_Reg( unsigned short cmd, unsigned short data)
{
 RS_OFF; // Comando
    2fb8:	e5029fe3 	str	r9, [r2, #-4067]	; 0xfe3
 FIOCLR = (0xFFFF <<NT35510_DT);
    2fbc:	e5046fe3 	str	r6, [r4, #-4067]	; 0xfe3
 FIOSET = (cmd    <<NT35510_DT);
    2fc0:	e5043fe7 	str	r3, [r4, #-4071]	; 0xfe7
 WR_OFF;

 WR_ON;
 RS_ON; // Data
 FIOCLR = (0xFFFF<<NT35510_DT);
 FIOSET = (data  <<NT35510_DT);
    2fc4:	e3a038f6 	mov	r3, #16121856	; 0xf60000
void NT35510_Reg( unsigned short cmd, unsigned short data)
{
 RS_OFF; // Comando
 FIOCLR = (0xFFFF <<NT35510_DT);
 FIOSET = (cmd    <<NT35510_DT);
 WR_OFF;
    2fc8:	e502cfe3 	str	ip, [r2, #-4067]	; 0xfe3

 WR_ON;
    2fcc:	e502cfe7 	str	ip, [r2, #-4071]	; 0xfe7
 RS_ON; // Data
    2fd0:	e5029fe7 	str	r9, [r2, #-4071]	; 0xfe7
 FIOCLR = (0xFFFF<<NT35510_DT);
    2fd4:	e5046fe3 	str	r6, [r4, #-4067]	; 0xfe3
 FIOSET = (data  <<NT35510_DT);
    2fd8:	e5043fe7 	str	r3, [r4, #-4071]	; 0xfe7
// ---------------------------------------------------
void NT35510_Reg( unsigned short cmd, unsigned short data)
{
 RS_OFF; // Comando
 FIOCLR = (0xFFFF <<NT35510_DT);
 FIOSET = (cmd    <<NT35510_DT);
    2fdc:	e51f3b10 	ldr	r3, [pc, #-2832]	; 24d4 <TFT_Init+0x13ec>
 WR_OFF;

 WR_ON;
